(dp0
S'METTS MARK'
p1
(dp2
S'expenses_log'
p3
S'NaN'
p4
sS'to_messages'
p5
I807
sS'deferral_payments'
p6
S'NaN'
p7
sS'bonus_log'
p8
g4
sS'expenses'
p9
I94299
sS'poi'
p10
I00
sS'deferred_income'
p11
g7
sS'restricted_stock_log'
p12
g4
sS'email_address'
p13
S'mark.metts@enron.com'
p14
sS'long_term_incentive'
p15
g7
sS'restricted_stock_deferred_log'
p16
g4
sS'salary_log'
p17
g4
sS'restricted_stock_deferred'
p18
g7
sS'director_fees_log'
p19
g4
sS'shared_receipt_with_poi'
p20
I702
sS'loan_advances'
p21
g7
sS'from_messages'
p22
I29
sS'other'
p23
I1740
sS'exercised_stock_options_log'
p24
g4
sS'director_fees'
p25
g7
sS'total_stock_value_log'
p26
g4
sS'bonus'
p27
I600000
sS'total_stock_value'
p28
I585062
sS'from_poi_to_this_person'
p29
I38
sS'deferral_payments_log'
p30
g4
sS'other_log'
p31
g4
sS'from_this_person_to_poi'
p32
I1
sS'total_payments_log'
p33
g4
sS'restricted_stock'
p34
I585062
sS'long_term_incentive_log'
p35
g4
sS'salary'
p36
I365788
sS'total_payments'
p37
I1061827
sS'exercised_stock_options'
p38
g7
sS'loan_advances_log'
p39
g4
sS'deferred_income_log'
p40
g4
ssS'BAXTER JOHN C'
p41
(dp42
S'expenses_log'
p43
g4
sg5
g7
sg6
I1295738
sS'bonus_log'
p44
g4
sg9
I11200
sg10
I00
sg11
I-1386055
sS'restricted_stock_log'
p45
g4
sg13
g7
sg15
I1586055
sS'restricted_stock_deferred_log'
p46
g4
sS'salary_log'
p47
g4
sg18
g7
sS'director_fees_log'
p48
g4
sg20
g7
sg21
g7
sg22
g7
sg23
I2660303
sS'exercised_stock_options_log'
p49
g4
sg25
g7
sS'total_stock_value_log'
p50
g4
sg27
I1200000
sg28
I10623258
sg29
g7
sS'deferral_payments_log'
p51
g4
sS'other_log'
p52
g4
sg32
g7
sS'total_payments_log'
p53
g4
sg34
I3942714
sS'long_term_incentive_log'
p54
g4
sg36
I267102
sg37
I5634343
sg38
I6680544
sS'loan_advances_log'
p55
g4
sS'deferred_income_log'
p56
g4
ssS'ELLIOTT STEVEN'
p57
(dp58
S'expenses_log'
p59
g4
sg5
g7
sg6
g7
sS'bonus_log'
p60
g4
sg9
I78552
sg10
I00
sg11
I-400729
sS'restricted_stock_log'
p61
g4
sg13
S'steven.elliott@enron.com'
p62
sg15
g7
sS'restricted_stock_deferred_log'
p63
g4
sS'salary_log'
p64
g4
sg18
g7
sS'director_fees_log'
p65
g4
sg20
g7
sg21
g7
sg22
g7
sg23
I12961
sS'exercised_stock_options_log'
p66
g4
sg25
g7
sS'total_stock_value_log'
p67
g4
sg27
I350000
sg28
I6678735
sg29
g7
sS'deferral_payments_log'
p68
g4
sS'other_log'
p69
g4
sg32
g7
sS'total_payments_log'
p70
g4
sg34
I1788391
sS'long_term_incentive_log'
p71
g4
sg36
I170941
sg37
I211725
sg38
I4890344
sS'loan_advances_log'
p72
g4
sS'deferred_income_log'
p73
g4
ssS'CORDES WILLIAM R'
p74
(dp75
S'expenses_log'
p76
g4
sg5
I764
sg6
g7
sS'bonus_log'
p77
g4
sg9
g7
sg10
I00
sg11
g7
sS'restricted_stock_log'
p78
g4
sg13
S'bill.cordes@enron.com'
p79
sg15
g7
sS'restricted_stock_deferred_log'
p80
g4
sS'salary_log'
p81
g4
sg18
g7
sS'director_fees_log'
p82
g4
sg20
I58
sg21
g7
sg22
I12
sg23
g7
sS'exercised_stock_options_log'
p83
g4
sg25
g7
sS'total_stock_value_log'
p84
g4
sg27
g7
sg28
I1038185
sg29
I10
sS'deferral_payments_log'
p85
g4
sS'other_log'
p86
g4
sg32
I0
sS'total_payments_log'
p87
g4
sg34
I386335
sS'long_term_incentive_log'
p88
g4
sg36
g7
sg37
g7
sg38
I651850
sS'loan_advances_log'
p89
g4
sS'deferred_income_log'
p90
g4
ssS'HANNON KEVIN P'
p91
(dp92
S'expenses_log'
p93
g4
sg5
I1045
sg6
g7
sS'bonus_log'
p94
g4
sg9
I34039
sg10
I01
sg11
I-3117011
sS'restricted_stock_log'
p95
g4
sg13
S'kevin.hannon@enron.com'
p96
sg15
I1617011
sS'restricted_stock_deferred_log'
p97
g4
sS'salary_log'
p98
g4
sg18
g7
sS'director_fees_log'
p99
g4
sg20
I1035
sg21
g7
sg22
I32
sg23
I11350
sS'exercised_stock_options_log'
p100
g4
sg25
g7
sS'total_stock_value_log'
p101
g4
sg27
I1500000
sg28
I6391065
sg29
I32
sS'deferral_payments_log'
p102
g4
sS'other_log'
p103
g4
sg32
I21
sS'total_payments_log'
p104
g4
sg34
I853064
sS'long_term_incentive_log'
p105
g4
sg36
I243293
sg37
I288682
sg38
I5538001
sS'loan_advances_log'
p106
g4
sS'deferred_income_log'
p107
g4
ssS'MORDAUNT KRISTINA M'
p108
(dp109
S'expenses_log'
p110
g4
sg5
g7
sg6
g7
sS'bonus_log'
p111
g4
sg9
I35018
sg10
I00
sg11
g7
sS'restricted_stock_log'
p112
g4
sg13
S'kristina.mordaunt@enron.com'
p113
sg15
g7
sS'restricted_stock_deferred_log'
p114
g4
sS'salary_log'
p115
g4
sg18
g7
sS'director_fees_log'
p116
g4
sg20
g7
sg21
g7
sg22
g7
sg23
I1411
sS'exercised_stock_options_log'
p117
g4
sg25
g7
sS'total_stock_value_log'
p118
g4
sg27
I325000
sg28
I208510
sg29
g7
sS'deferral_payments_log'
p119
g4
sS'other_log'
p120
g4
sg32
g7
sS'total_payments_log'
p121
g4
sg34
I208510
sS'long_term_incentive_log'
p122
g4
sg36
I267093
sg37
I628522
sg38
g7
sS'loan_advances_log'
p123
g4
sS'deferred_income_log'
p124
g4
ssS'MEYER ROCKFORD G'
p125
(dp126
S'expenses_log'
p127
g4
sg5
I232
sg6
I1848227
sS'bonus_log'
p128
g4
sg9
g7
sg10
I00
sg11
g7
sS'restricted_stock_log'
p129
g4
sg13
S'rockford.meyer@enron.com'
p130
sg15
g7
sS'restricted_stock_deferred_log'
p131
g4
sS'salary_log'
p132
g4
sg18
g7
sS'director_fees_log'
p133
g4
sg20
I22
sg21
g7
sg22
I28
sg23
g7
sS'exercised_stock_options_log'
p134
g4
sg25
g7
sS'total_stock_value_log'
p135
g4
sg27
g7
sg28
I955873
sg29
I0
sS'deferral_payments_log'
p136
g4
sS'other_log'
p137
g4
sg32
I0
sS'total_payments_log'
p138
g4
sg34
I462384
sS'long_term_incentive_log'
p139
g4
sg36
g7
sg37
I1848227
sg38
I493489
sS'loan_advances_log'
p140
g4
sS'deferred_income_log'
p141
g4
ssS'MCMAHON JEFFREY'
p142
(dp143
S'expenses_log'
p144
g4
sg5
I2355
sg6
g7
sS'bonus_log'
p145
g4
sg9
I137108
sg10
I00
sg11
g7
sS'restricted_stock_log'
p146
g4
sg13
S'jeffrey.mcmahon@enron.com'
p147
sg15
I694862
sS'restricted_stock_deferred_log'
p148
g4
sS'salary_log'
p149
g4
sg18
g7
sS'director_fees_log'
p150
g4
sg20
I2228
sg21
g7
sg22
I48
sg23
I297353
sS'exercised_stock_options_log'
p151
g4
sg25
g7
sS'total_stock_value_log'
p152
g4
sg27
I2600000
sg28
I1662855
sg29
I58
sS'deferral_payments_log'
p153
g4
sS'other_log'
p154
g4
sg32
I26
sS'total_payments_log'
p155
g4
sg34
I558801
sS'long_term_incentive_log'
p156
g4
sg36
I370448
sg37
I4099771
sg38
I1104054
sS'loan_advances_log'
p157
g4
sS'deferred_income_log'
p158
g4
ssS'HORTON STANLEY C'
p159
(dp160
S'expenses_log'
p161
g4
sg5
I2350
sg6
I3131860
sS'bonus_log'
p162
g4
sg9
g7
sg10
I00
sg11
g7
sS'restricted_stock_log'
p163
g4
sg13
S'stanley.horton@enron.com'
p164
sg15
g7
sS'restricted_stock_deferred_log'
p165
g4
sS'salary_log'
p166
g4
sg18
g7
sS'director_fees_log'
p167
g4
sg20
I1074
sg21
g7
sg22
I1073
sg23
g7
sS'exercised_stock_options_log'
p168
g4
sg25
g7
sS'total_stock_value_log'
p169
g4
sg27
g7
sg28
I7256648
sg29
I44
sS'deferral_payments_log'
p170
g4
sS'other_log'
p171
g4
sg32
I15
sS'total_payments_log'
p172
g4
sg34
I2046079
sS'long_term_incentive_log'
p173
g4
sg36
g7
sg37
I3131860
sg38
I5210569
sS'loan_advances_log'
p174
g4
sS'deferred_income_log'
p175
g4
ssS'PIPER GREGORY F'
p176
(dp177
S'expenses_log'
p178
g4
sg5
I1238
sg6
I1130036
sS'bonus_log'
p179
g4
sg9
I43057
sg10
I00
sg11
I-33333
sS'restricted_stock_log'
p180
g4
sg13
S'greg.piper@enron.com'
p181
sg15
g7
sS'restricted_stock_deferred_log'
p182
g4
sS'salary_log'
p183
g4
sg18
I-409554
sS'director_fees_log'
p184
g4
sg20
I742
sg21
g7
sg22
I222
sg23
I778
sS'exercised_stock_options_log'
p185
g4
sg25
g7
sS'total_stock_value_log'
p186
g4
sg27
I400000
sg28
I880290
sg29
I61
sS'deferral_payments_log'
p187
g4
sS'other_log'
p188
g4
sg32
I48
sS'total_payments_log'
p189
g4
sg34
I409554
sS'long_term_incentive_log'
p190
g4
sg36
I197091
sg37
I1737629
sg38
I880290
sS'loan_advances_log'
p191
g4
sS'deferred_income_log'
p192
g4
ssS'HUMPHREY GENE E'
p193
(dp194
S'expenses_log'
p195
g4
sg5
I128
sg6
I2964506
sS'bonus_log'
p196
g4
sg9
I4994
sg10
I00
sg11
g7
sS'restricted_stock_log'
p197
g4
sg13
S'gene.humphrey@enron.com'
p198
sg15
g7
sS'restricted_stock_deferred_log'
p199
g4
sS'salary_log'
p200
g4
sg18
g7
sS'director_fees_log'
p201
g4
sg20
I119
sg21
g7
sg22
I17
sg23
g7
sS'exercised_stock_options_log'
p202
g4
sg25
g7
sS'total_stock_value_log'
p203
g4
sg27
g7
sg28
I2282768
sg29
I10
sS'deferral_payments_log'
p204
g4
sS'other_log'
p205
g4
sg32
I17
sS'total_payments_log'
p206
g4
sg34
g7
sS'long_term_incentive_log'
p207
g4
sg36
I130724
sg37
I3100224
sg38
I2282768
sS'loan_advances_log'
p208
g4
sS'deferred_income_log'
p209
g4
ssS'UMANOFF ADAM S'
p210
(dp211
S'expenses_log'
p212
g4
sg5
I111
sg6
g7
sS'bonus_log'
p213
g4
sg9
I53122
sg10
I00
sg11
g7
sS'restricted_stock_log'
p214
g4
sg13
S'adam.umanoff@enron.com'
p215
sg15
g7
sS'restricted_stock_deferred_log'
p216
g4
sS'salary_log'
p217
g4
sg18
g7
sS'director_fees_log'
p218
g4
sg20
I41
sg21
g7
sg22
I18
sg23
g7
sS'exercised_stock_options_log'
p219
g4
sg25
g7
sS'total_stock_value_log'
p220
g4
sg27
I788750
sg28
g7
sg29
I12
sS'deferral_payments_log'
p221
g4
sS'other_log'
p222
g4
sg32
I0
sS'total_payments_log'
p223
g4
sg34
g7
sS'long_term_incentive_log'
p224
g4
sg36
I288589
sg37
I1130461
sg38
g7
sS'loan_advances_log'
p225
g4
sS'deferred_income_log'
p226
g4
ssS'BLACHMAN JEREMY M'
p227
(dp228
S'expenses_log'
p229
g4
sg5
I2475
sg6
g7
sS'bonus_log'
p230
g4
sg9
I84208
sg10
I00
sg11
g7
sS'restricted_stock_log'
p231
g4
sg13
S'jeremy.blachman@enron.com'
p232
sg15
I831809
sS'restricted_stock_deferred_log'
p233
g4
sS'salary_log'
p234
g4
sg18
g7
sS'director_fees_log'
p235
g4
sg20
I2326
sg21
g7
sg22
I14
sg23
I272
sS'exercised_stock_options_log'
p236
g4
sg25
g7
sS'total_stock_value_log'
p237
g4
sg27
I850000
sg28
I954354
sg29
I25
sS'deferral_payments_log'
p238
g4
sS'other_log'
p239
g4
sg32
I2
sS'total_payments_log'
p240
g4
sg34
I189041
sS'long_term_incentive_log'
p241
g4
sg36
I248546
sg37
I2014835
sg38
I765313
sS'loan_advances_log'
p242
g4
sS'deferred_income_log'
p243
g4
ssS'SUNDE MARTIN'
p244
(dp245
S'expenses_log'
p246
g4
sg5
I2647
sg6
g7
sS'bonus_log'
p247
g4
sg9
g7
sg10
I00
sg11
g7
sS'restricted_stock_log'
p248
g4
sg13
S'marty.sunde@enron.com'
p249
sg15
I476451
sS'restricted_stock_deferred_log'
p250
g4
sS'salary_log'
p251
g4
sg18
g7
sS'director_fees_log'
p252
g4
sg20
I2565
sg21
g7
sg22
I38
sg23
I111122
sS'exercised_stock_options_log'
p253
g4
sg25
g7
sS'total_stock_value_log'
p254
g4
sg27
I700000
sg28
I698920
sg29
I37
sS'deferral_payments_log'
p255
g4
sS'other_log'
p256
g4
sg32
I13
sS'total_payments_log'
p257
g4
sg34
I698920
sS'long_term_incentive_log'
p258
g4
sg36
I257486
sg37
I1545059
sg38
g7
sS'loan_advances_log'
p259
g4
sS'deferred_income_log'
p260
g4
ssS'GIBBS DANA R'
p261
(dp262
S'expenses_log'
p263
g4
sg5
I169
sg6
I504610
sS'bonus_log'
p264
g4
sg9
g7
sg10
I00
sg11
g7
sS'restricted_stock_log'
p265
g4
sg13
S'dana.gibbs@enron.com'
p266
sg15
I461912
sS'restricted_stock_deferred_log'
p267
g4
sS'salary_log'
p268
g4
sg18
g7
sS'director_fees_log'
p269
g4
sg20
I23
sg21
g7
sg22
I12
sg23
g7
sS'exercised_stock_options_log'
p270
g4
sg25
g7
sS'total_stock_value_log'
p271
g4
sg27
g7
sg28
I2218275
sg29
I0
sS'deferral_payments_log'
p272
g4
sS'other_log'
p273
g4
sg32
I0
sS'total_payments_log'
p274
g4
sg34
g7
sS'long_term_incentive_log'
p275
g4
sg36
g7
sg37
I966522
sg38
I2218275
sS'loan_advances_log'
p276
g4
sS'deferred_income_log'
p277
g4
ssS'LOWRY CHARLES P'
p278
(dp279
S'expenses_log'
p280
g4
sg5
g7
sg6
g7
sS'bonus_log'
p281
g4
sg9
g7
sg10
I00
sg11
g7
sS'restricted_stock_log'
p282
g4
sg13
g7
sg15
g7
sS'restricted_stock_deferred_log'
p283
g4
sS'salary_log'
p284
g4
sg18
I-153686
sS'director_fees_log'
p285
g4
sg20
g7
sg21
g7
sg22
g7
sg23
g7
sS'exercised_stock_options_log'
p286
g4
sg25
g7
sS'total_stock_value_log'
p287
g4
sg27
g7
sg28
I372205
sg29
g7
sS'deferral_payments_log'
p288
g4
sS'other_log'
p289
g4
sg32
g7
sS'total_payments_log'
p290
g4
sg34
I153686
sS'long_term_incentive_log'
p291
g4
sg36
g7
sg37
g7
sg38
I372205
sS'loan_advances_log'
p292
g4
sS'deferred_income_log'
p293
g4
ssS'COLWELL WESLEY'
p294
(dp295
S'expenses_log'
p296
g4
sg5
I1758
sg6
I27610
sS'bonus_log'
p297
g4
sg9
I16514
sg10
I01
sg11
I-144062
sS'restricted_stock_log'
p298
g4
sg13
S'wes.colwell@enron.com'
p299
sg15
g7
sS'restricted_stock_deferred_log'
p300
g4
sS'salary_log'
p301
g4
sg18
g7
sS'director_fees_log'
p302
g4
sg20
I1132
sg21
g7
sg22
I40
sg23
I101740
sS'exercised_stock_options_log'
p303
g4
sg25
g7
sS'total_stock_value_log'
p304
g4
sg27
I1200000
sg28
I698242
sg29
I240
sS'deferral_payments_log'
p305
g4
sS'other_log'
p306
g4
sg32
I11
sS'total_payments_log'
p307
g4
sg34
I698242
sS'long_term_incentive_log'
p308
g4
sg36
I288542
sg37
I1490344
sg38
g7
sS'loan_advances_log'
p309
g4
sS'deferred_income_log'
p310
g4
ssS'MULLER MARK S'
p311
(dp312
S'expenses_log'
p313
g4
sg5
I136
sg6
I842924
sS'bonus_log'
p314
g4
sg9
g7
sg10
I00
sg11
I-719000
sS'restricted_stock_log'
p315
g4
sg13
S's..muller@enron.com'
p316
sg15
I1725545
sS'restricted_stock_deferred_log'
p317
g4
sS'salary_log'
p318
g4
sg18
g7
sS'director_fees_log'
p319
g4
sg20
I114
sg21
g7
sg22
I16
sg23
I947
sS'exercised_stock_options_log'
p320
g4
sg25
g7
sS'total_stock_value_log'
p321
g4
sg27
I1100000
sg28
I1416848
sg29
I12
sS'deferral_payments_log'
p322
g4
sS'other_log'
p323
g4
sg32
I0
sS'total_payments_log'
p324
g4
sg34
I360528
sS'long_term_incentive_log'
p325
g4
sg36
I251654
sg37
I3202070
sg38
I1056320
sS'loan_advances_log'
p326
g4
sS'deferred_income_log'
p327
g4
ssS'JACKSON CHARLENE R'
p328
(dp329
S'expenses_log'
p330
g4
sg5
I258
sg6
g7
sS'bonus_log'
p331
g4
sg9
I10181
sg10
I00
sg11
g7
sS'restricted_stock_log'
p332
g4
sg13
S'charlene.jackson@enron.com'
p333
sg15
g7
sS'restricted_stock_deferred_log'
p334
g4
sS'salary_log'
p335
g4
sg18
g7
sS'director_fees_log'
p336
g4
sg20
I117
sg21
g7
sg22
I56
sg23
I2435
sS'exercised_stock_options_log'
p337
g4
sg25
g7
sS'total_stock_value_log'
p338
g4
sg27
I250000
sg28
I725735
sg29
I25
sS'deferral_payments_log'
p339
g4
sS'other_log'
p340
g4
sg32
I19
sS'total_payments_log'
p341
g4
sg34
I540672
sS'long_term_incentive_log'
p342
g4
sg36
I288558
sg37
I551174
sg38
I185063
sS'loan_advances_log'
p343
g4
sS'deferred_income_log'
p344
g4
ssS'WESTFAHL RICHARD K'
p345
(dp346
S'expenses_log'
p347
g4
sg5
g7
sg6
g7
sS'bonus_log'
p348
g4
sg9
I51870
sg10
I00
sg11
I-10800
sS'restricted_stock_log'
p349
g4
sg13
S'dick.westfahl@enron.com'
p350
sg15
I256191
sS'restricted_stock_deferred_log'
p351
g4
sS'salary_log'
p352
g4
sg18
g7
sS'director_fees_log'
p353
g4
sg20
g7
sg21
g7
sg22
g7
sg23
I401130
sS'exercised_stock_options_log'
p354
g4
sg25
g7
sS'total_stock_value_log'
p355
g4
sg27
g7
sg28
I384930
sg29
g7
sS'deferral_payments_log'
p356
g4
sS'other_log'
p357
g4
sg32
g7
sS'total_payments_log'
p358
g4
sg34
I384930
sS'long_term_incentive_log'
p359
g4
sg36
I63744
sg37
I762135
sg38
g7
sS'loan_advances_log'
p360
g4
sS'deferred_income_log'
p361
g4
ssS'WALTERS GARETH W'
p362
(dp363
S'expenses_log'
p364
g4
sg5
g7
sg6
I53625
sS'bonus_log'
p365
g4
sg9
I33785
sg10
I00
sg11
g7
sS'restricted_stock_log'
p366
g4
sg13
g7
sg15
g7
sS'restricted_stock_deferred_log'
p367
g4
sS'salary_log'
p368
g4
sg18
g7
sS'director_fees_log'
p369
g4
sg20
g7
sg21
g7
sg22
g7
sg23
g7
sS'exercised_stock_options_log'
p370
g4
sg25
g7
sS'total_stock_value_log'
p371
g4
sg27
g7
sg28
I1030329
sg29
g7
sS'deferral_payments_log'
p372
g4
sS'other_log'
p373
g4
sg32
g7
sS'total_payments_log'
p374
g4
sg34
g7
sS'long_term_incentive_log'
p375
g4
sg36
g7
sg37
I87410
sg38
I1030329
sS'loan_advances_log'
p376
g4
sS'deferred_income_log'
p377
g4
ssS'WALLS JR ROBERT H'
p378
(dp379
S'expenses_log'
p380
g4
sg5
I671
sg6
g7
sS'bonus_log'
p381
g4
sg9
I50936
sg10
I00
sg11
g7
sS'restricted_stock_log'
p382
g4
sg13
S'rob.walls@enron.com'
p383
sg15
I540751
sS'restricted_stock_deferred_log'
p384
g4
sS'salary_log'
p385
g4
sg18
g7
sS'director_fees_log'
p386
g4
sg20
I215
sg21
g7
sg22
I146
sg23
I2
sS'exercised_stock_options_log'
p387
g4
sg25
g7
sS'total_stock_value_log'
p388
g4
sg27
I850000
sg28
I5898997
sg29
I17
sS'deferral_payments_log'
p389
g4
sS'other_log'
p390
g4
sg32
I0
sS'total_payments_log'
p391
g4
sg34
I1552453
sS'long_term_incentive_log'
p392
g4
sg36
I357091
sg37
I1798780
sg38
I4346544
sS'loan_advances_log'
p393
g4
sS'deferred_income_log'
p394
g4
ssS'KITCHEN LOUISE'
p395
(dp396
S'expenses_log'
p397
g4
sg5
I8305
sg6
g7
sS'bonus_log'
p398
g4
sg9
I5774
sg10
I00
sg11
g7
sS'restricted_stock_log'
p399
g4
sg13
S'louise.kitchen@enron.com'
p400
sg15
g7
sS'restricted_stock_deferred_log'
p401
g4
sS'salary_log'
p402
g4
sg18
g7
sS'director_fees_log'
p403
g4
sg20
I3669
sg21
g7
sg22
I1728
sg23
I93925
sS'exercised_stock_options_log'
p404
g4
sg25
g7
sS'total_stock_value_log'
p405
g4
sg27
I3100000
sg28
I547143
sg29
I251
sS'deferral_payments_log'
p406
g4
sS'other_log'
p407
g4
sg32
I194
sS'total_payments_log'
p408
g4
sg34
I466101
sS'long_term_incentive_log'
p409
g4
sg36
I271442
sg37
I3471141
sg38
I81042
sS'loan_advances_log'
p410
g4
sS'deferred_income_log'
p411
g4
ssS'CHAN RONNIE'
p412
(dp413
S'expenses_log'
p414
g4
sg5
g7
sg6
g7
sS'bonus_log'
p415
g4
sg9
g7
sg10
I00
sg11
I-98784
sS'restricted_stock_log'
p416
g4
sg13
g7
sg15
g7
sS'restricted_stock_deferred_log'
p417
g4
sS'salary_log'
p418
g4
sg18
I-32460
sS'director_fees_log'
p419
g4
sg20
g7
sg21
g7
sg22
g7
sg23
g7
sS'exercised_stock_options_log'
p420
g4
sg25
I98784
sS'total_stock_value_log'
p421
g4
sg27
g7
sg28
g7
sg29
g7
sS'deferral_payments_log'
p422
g4
sS'other_log'
p423
g4
sg32
g7
sS'total_payments_log'
p424
g4
sg34
I32460
sS'long_term_incentive_log'
p425
g4
sg36
g7
sg37
g7
sg38
g7
sS'loan_advances_log'
p426
g4
sS'deferred_income_log'
p427
g4
ssS'BELFER ROBERT'
p428
(dp429
S'expenses_log'
p430
g4
sg5
g7
sg6
I-102500
sS'bonus_log'
p431
g4
sg9
g7
sg10
I00
sg11
g7
sS'restricted_stock_log'
p432
g4
sg13
g7
sg15
g7
sS'restricted_stock_deferred_log'
p433
g4
sS'salary_log'
p434
g4
sg18
I44093
sS'director_fees_log'
p435
g4
sg20
g7
sg21
g7
sg22
g7
sg23
g7
sS'exercised_stock_options_log'
p436
g4
sg25
I3285
sS'total_stock_value_log'
p437
g4
sg27
g7
sg28
I-44093
sg29
g7
sS'deferral_payments_log'
p438
g4
sS'other_log'
p439
g4
sg32
g7
sS'total_payments_log'
p440
g4
sg34
g7
sS'long_term_incentive_log'
p441
g4
sg36
g7
sg37
I102500
sg38
I3285
sS'loan_advances_log'
p442
g4
sS'deferred_income_log'
p443
g4
ssS'SHANKMAN JEFFREY A'
p444
(dp445
S'expenses_log'
p446
g4
sg5
I3221
sg6
g7
sS'bonus_log'
p447
g4
sg9
I178979
sg10
I00
sg11
g7
sS'restricted_stock_log'
p448
g4
sg13
S'jeffrey.shankman@enron.com'
p449
sg15
I554422
sS'restricted_stock_deferred_log'
p450
g4
sS'salary_log'
p451
g4
sg18
g7
sS'director_fees_log'
p452
g4
sg20
I1730
sg21
g7
sg22
I2681
sg23
I1191
sS'exercised_stock_options_log'
p453
g4
sg25
g7
sS'total_stock_value_log'
p454
g4
sg27
I2000000
sg28
I2072035
sg29
I94
sS'deferral_payments_log'
p455
g4
sS'other_log'
p456
g4
sg32
I83
sS'total_payments_log'
p457
g4
sg34
I630137
sS'long_term_incentive_log'
p458
g4
sg36
I304110
sg37
I3038702
sg38
I1441898
sS'loan_advances_log'
p459
g4
sS'deferred_income_log'
p460
g4
ssS'WODRASKA JOHN'
p461
(dp462
S'expenses_log'
p463
g4
sg5
g7
sg6
g7
sS'bonus_log'
p464
g4
sg9
g7
sg10
I00
sg11
g7
sS'restricted_stock_log'
p465
g4
sg13
S'john.wodraska@enron.com'
p466
sg15
g7
sS'restricted_stock_deferred_log'
p467
g4
sS'salary_log'
p468
g4
sg18
g7
sS'director_fees_log'
p469
g4
sg20
g7
sg21
g7
sg22
g7
sg23
I189583
sS'exercised_stock_options_log'
p470
g4
sg25
g7
sS'total_stock_value_log'
p471
g4
sg27
g7
sg28
g7
sg29
g7
sS'deferral_payments_log'
p472
g4
sS'other_log'
p473
g4
sg32
g7
sS'total_payments_log'
p474
g4
sg34
g7
sS'long_term_incentive_log'
p475
g4
sg36
g7
sg37
I189583
sg38
g7
sS'loan_advances_log'
p476
g4
sS'deferred_income_log'
p477
g4
ssS'BERGSIEKER RICHARD P'
p478
(dp479
S'expenses_log'
p480
g4
sg5
I383
sg6
g7
sS'bonus_log'
p481
g4
sg9
I59175
sg10
I00
sg11
I-485813
sS'restricted_stock_log'
p482
g4
sg13
S'rick.bergsieker@enron.com'
p483
sg15
I180250
sS'restricted_stock_deferred_log'
p484
g4
sS'salary_log'
p485
g4
sg18
g7
sS'director_fees_log'
p486
g4
sg20
I233
sg21
g7
sg22
I59
sg23
I427316
sS'exercised_stock_options_log'
p487
g4
sg25
g7
sS'total_stock_value_log'
p488
g4
sg27
I250000
sg28
I659249
sg29
I4
sS'deferral_payments_log'
p489
g4
sS'other_log'
p490
g4
sg32
I0
sS'total_payments_log'
p491
g4
sg34
I659249
sS'long_term_incentive_log'
p492
g4
sg36
I187922
sg37
I618850
sg38
g7
sS'loan_advances_log'
p493
g4
sS'deferred_income_log'
p494
g4
ssS'URQUHART JOHN A'
p495
(dp496
S'expenses_log'
p497
g4
sg5
g7
sg6
g7
sS'bonus_log'
p498
g4
sg9
I228656
sg10
I00
sg11
I-36666
sS'restricted_stock_log'
p499
g4
sg13
g7
sg15
g7
sS'restricted_stock_deferred_log'
p500
g4
sS'salary_log'
p501
g4
sg18
g7
sS'director_fees_log'
p502
g4
sg20
g7
sg21
g7
sg22
g7
sg23
g7
sS'exercised_stock_options_log'
p503
g4
sg25
I36666
sS'total_stock_value_log'
p504
g4
sg27
g7
sg28
g7
sg29
g7
sS'deferral_payments_log'
p505
g4
sS'other_log'
p506
g4
sg32
g7
sS'total_payments_log'
p507
g4
sg34
g7
sS'long_term_incentive_log'
p508
g4
sg36
g7
sg37
I228656
sg38
g7
sS'loan_advances_log'
p509
g4
sS'deferred_income_log'
p510
g4
ssS'BIBI PHILIPPE A'
p511
(dp512
S'expenses_log'
p513
g4
sg5
I1607
sg6
g7
sS'bonus_log'
p514
g4
sg9
I38559
sg10
I00
sg11
g7
sS'restricted_stock_log'
p515
g4
sg13
S'philippe.bibi@enron.com'
p516
sg15
I369721
sS'restricted_stock_deferred_log'
p517
g4
sS'salary_log'
p518
g4
sg18
g7
sS'director_fees_log'
p519
g4
sg20
I1336
sg21
g7
sg22
I40
sg23
I425688
sS'exercised_stock_options_log'
p520
g4
sg25
g7
sS'total_stock_value_log'
p521
g4
sg27
I1000000
sg28
I1843816
sg29
I23
sS'deferral_payments_log'
p522
g4
sS'other_log'
p523
g4
sg32
I8
sS'total_payments_log'
p524
g4
sg34
I378082
sS'long_term_incentive_log'
p525
g4
sg36
I213625
sg37
I2047593
sg38
I1465734
sS'loan_advances_log'
p526
g4
sS'deferred_income_log'
p527
g4
ssS'RIEKER PAULA H'
p528
(dp529
S'expenses_log'
p530
g4
sg5
I1328
sg6
I214678
sS'bonus_log'
p531
g4
sg9
I33271
sg10
I01
sg11
I-100000
sS'restricted_stock_log'
p532
g4
sg13
S'paula.rieker@enron.com'
p533
sg15
g7
sS'restricted_stock_deferred_log'
p534
g4
sS'salary_log'
p535
g4
sg18
g7
sS'director_fees_log'
p536
g4
sg20
I1258
sg21
g7
sg22
I82
sg23
I1950
sS'exercised_stock_options_log'
p537
g4
sg25
g7
sS'total_stock_value_log'
p538
g4
sg27
I700000
sg28
I1918887
sg29
I35
sS'deferral_payments_log'
p539
g4
sS'other_log'
p540
g4
sg32
I48
sS'total_payments_log'
p541
g4
sg34
I283649
sS'long_term_incentive_log'
p542
g4
sg36
I249201
sg37
I1099100
sg38
I1635238
sS'loan_advances_log'
p543
g4
sS'deferred_income_log'
p544
g4
ssS'WHALEY DAVID A'
p545
(dp546
S'expenses_log'
p547
g4
sg5
g7
sg6
g7
sS'bonus_log'
p548
g4
sg9
g7
sg10
I00
sg11
g7
sS'restricted_stock_log'
p549
g4
sg13
g7
sg15
g7
sS'restricted_stock_deferred_log'
p550
g4
sS'salary_log'
p551
g4
sg18
g7
sS'director_fees_log'
p552
g4
sg20
g7
sg21
g7
sg22
g7
sg23
g7
sS'exercised_stock_options_log'
p553
g4
sg25
g7
sS'total_stock_value_log'
p554
g4
sg27
g7
sg28
I98718
sg29
g7
sS'deferral_payments_log'
p555
g4
sS'other_log'
p556
g4
sg32
g7
sS'total_payments_log'
p557
g4
sg34
g7
sS'long_term_incentive_log'
p558
g4
sg36
g7
sg37
g7
sg38
I98718
sS'loan_advances_log'
p559
g4
sS'deferred_income_log'
p560
g4
ssS'BECK SALLY W'
p561
(dp562
S'expenses_log'
p563
g4
sg5
I7315
sg6
g7
sS'bonus_log'
p564
g4
sg9
I37172
sg10
I00
sg11
g7
sS'restricted_stock_log'
p565
g4
sg13
S'sally.beck@enron.com'
p566
sg15
g7
sS'restricted_stock_deferred_log'
p567
g4
sS'salary_log'
p568
g4
sg18
g7
sS'director_fees_log'
p569
g4
sg20
I2639
sg21
g7
sg22
I4343
sg23
I566
sS'exercised_stock_options_log'
p570
g4
sg25
g7
sS'total_stock_value_log'
p571
g4
sg27
I700000
sg28
I126027
sg29
I144
sS'deferral_payments_log'
p572
g4
sS'other_log'
p573
g4
sg32
I386
sS'total_payments_log'
p574
g4
sg34
I126027
sS'long_term_incentive_log'
p575
g4
sg36
I231330
sg37
I969068
sg38
g7
sS'loan_advances_log'
p576
g4
sS'deferred_income_log'
p577
g4
ssS'HAUG DAVID L'
p578
(dp579
S'expenses_log'
p580
g4
sg5
I573
sg6
g7
sS'bonus_log'
p581
g4
sg9
I475
sg10
I00
sg11
g7
sS'restricted_stock_log'
p582
g4
sg13
S'david.haug@enron.com'
p583
sg15
g7
sS'restricted_stock_deferred_log'
p584
g4
sS'salary_log'
p585
g4
sg18
g7
sS'director_fees_log'
p586
g4
sg20
I471
sg21
g7
sg22
I19
sg23
g7
sS'exercised_stock_options_log'
p587
g4
sg25
g7
sS'total_stock_value_log'
p588
g4
sg27
g7
sg28
I2217299
sg29
I4
sS'deferral_payments_log'
p589
g4
sS'other_log'
p590
g4
sg32
I7
sS'total_payments_log'
p591
g4
sg34
I2217299
sS'long_term_incentive_log'
p592
g4
sg36
g7
sg37
I475
sg38
g7
sS'loan_advances_log'
p593
g4
sS'deferred_income_log'
p594
g4
ssS'ECHOLS JOHN B'
p595
(dp596
S'expenses_log'
p597
g4
sg5
g7
sg6
g7
sS'bonus_log'
p598
g4
sg9
I21530
sg10
I00
sg11
g7
sS'restricted_stock_log'
p599
g4
sg13
S'john.echols@enron.com'
p600
sg15
I2234774
sS'restricted_stock_deferred_log'
p601
g4
sS'salary_log'
p602
g4
sg18
g7
sS'director_fees_log'
p603
g4
sg20
g7
sg21
g7
sg22
g7
sg23
I53775
sS'exercised_stock_options_log'
p604
g4
sg25
g7
sS'total_stock_value_log'
p605
g4
sg27
I200000
sg28
I1008941
sg29
g7
sS'deferral_payments_log'
p606
g4
sS'other_log'
p607
g4
sg32
g7
sS'total_payments_log'
p608
g4
sg34
I407503
sS'long_term_incentive_log'
p609
g4
sg36
I182245
sg37
I2692324
sg38
I601438
sS'loan_advances_log'
p610
g4
sS'deferred_income_log'
p611
g4
ssS'MENDELSOHN JOHN'
p612
(dp613
S'expenses_log'
p614
g4
sg5
g7
sg6
g7
sS'bonus_log'
p615
g4
sg9
I148
sg10
I00
sg11
I-103750
sS'restricted_stock_log'
p616
g4
sg13
g7
sg15
g7
sS'restricted_stock_deferred_log'
p617
g4
sS'salary_log'
p618
g4
sg18
g7
sS'director_fees_log'
p619
g4
sg20
g7
sg21
g7
sg22
g7
sg23
g7
sS'exercised_stock_options_log'
p620
g4
sg25
I103750
sS'total_stock_value_log'
p621
g4
sg27
g7
sg28
g7
sg29
g7
sS'deferral_payments_log'
p622
g4
sS'other_log'
p623
g4
sg32
g7
sS'total_payments_log'
p624
g4
sg34
g7
sS'long_term_incentive_log'
p625
g4
sg36
g7
sg37
I148
sg38
g7
sS'loan_advances_log'
p626
g4
sS'deferred_income_log'
p627
g4
ssS'HICKERSON GARY J'
p628
(dp629
S'expenses_log'
p630
g4
sg5
I1320
sg6
g7
sS'bonus_log'
p631
g4
sg9
I98849
sg10
I00
sg11
g7
sS'restricted_stock_log'
p632
g4
sg13
S'gary.hickerson@enron.com'
p633
sg15
I69223
sS'restricted_stock_deferred_log'
p634
g4
sS'salary_log'
p635
g4
sg18
g7
sS'director_fees_log'
p636
g4
sg20
I900
sg21
g7
sg22
I27
sg23
I1936
sS'exercised_stock_options_log'
p637
g4
sg25
g7
sS'total_stock_value_log'
p638
g4
sg27
I1700000
sg28
I441096
sg29
I40
sS'deferral_payments_log'
p639
g4
sS'other_log'
p640
g4
sg32
I1
sS'total_payments_log'
p641
g4
sg34
I441096
sS'long_term_incentive_log'
p642
g4
sg36
I211788
sg37
I2081796
sg38
g7
sS'loan_advances_log'
p643
g4
sS'deferred_income_log'
p644
g4
ssS'CLINE KENNETH W'
p645
(dp646
S'expenses_log'
p647
g4
sg5
g7
sg6
g7
sS'bonus_log'
p648
g4
sg9
g7
sg10
I00
sg11
g7
sS'restricted_stock_log'
p649
g4
sg13
g7
sg15
g7
sS'restricted_stock_deferred_log'
p650
g4
sS'salary_log'
p651
g4
sg18
I-472568
sS'director_fees_log'
p652
g4
sg20
g7
sg21
g7
sg22
g7
sg23
g7
sS'exercised_stock_options_log'
p653
g4
sg25
g7
sS'total_stock_value_log'
p654
g4
sg27
g7
sg28
I189518
sg29
g7
sS'deferral_payments_log'
p655
g4
sS'other_log'
p656
g4
sg32
g7
sS'total_payments_log'
p657
g4
sg34
I662086
sS'long_term_incentive_log'
p658
g4
sg36
g7
sg37
g7
sg38
g7
sS'loan_advances_log'
p659
g4
sS'deferred_income_log'
p660
g4
ssS'LEWIS RICHARD'
p661
(dp662
S'expenses_log'
p663
g4
sg5
I952
sg6
g7
sS'bonus_log'
p664
g4
sg9
g7
sg10
I00
sg11
g7
sS'restricted_stock_log'
p665
g4
sg13
S'richard.lewis@enron.com'
p666
sg15
g7
sS'restricted_stock_deferred_log'
p667
g4
sS'salary_log'
p668
g4
sg18
g7
sS'director_fees_log'
p669
g4
sg20
I739
sg21
g7
sg22
I26
sg23
g7
sS'exercised_stock_options_log'
p670
g4
sg25
g7
sS'total_stock_value_log'
p671
g4
sg27
g7
sg28
I850477
sg29
I10
sS'deferral_payments_log'
p672
g4
sS'other_log'
p673
g4
sg32
I0
sS'total_payments_log'
p674
g4
sg34
g7
sS'long_term_incentive_log'
p675
g4
sg36
g7
sg37
g7
sg38
I850477
sS'loan_advances_log'
p676
g4
sS'deferred_income_log'
p677
g4
ssS'HAYES ROBERT E'
p678
(dp679
S'expenses_log'
p680
g4
sg5
I504
sg6
I7961
sS'bonus_log'
p681
g4
sg9
g7
sg10
I00
sg11
g7
sS'restricted_stock_log'
p682
g4
sg13
S'robert.hayes@enron.com'
p683
sg15
g7
sS'restricted_stock_deferred_log'
p684
g4
sS'salary_log'
p685
g4
sg18
g7
sS'director_fees_log'
p686
g4
sg20
I50
sg21
g7
sg22
I12
sg23
g7
sS'exercised_stock_options_log'
p687
g4
sg25
g7
sS'total_stock_value_log'
p688
g4
sg27
g7
sg28
I151418
sg29
I16
sS'deferral_payments_log'
p689
g4
sS'other_log'
p690
g4
sg32
I0
sS'total_payments_log'
p691
g4
sg34
I151418
sS'long_term_incentive_log'
p692
g4
sg36
g7
sg37
I7961
sg38
g7
sS'loan_advances_log'
p693
g4
sS'deferred_income_log'
p694
g4
ssS'MCCARTY DANNY J'
p695
(dp696
S'expenses_log'
p697
g4
sg5
I1433
sg6
g7
sS'bonus_log'
p698
g4
sg9
g7
sg10
I00
sg11
g7
sS'restricted_stock_log'
p699
g4
sg13
S'danny.mccarty@enron.com'
p700
sg15
g7
sS'restricted_stock_deferred_log'
p701
g4
sS'salary_log'
p702
g4
sg18
g7
sS'director_fees_log'
p703
g4
sg20
I508
sg21
g7
sg22
I215
sg23
g7
sS'exercised_stock_options_log'
p704
g4
sg25
g7
sS'total_stock_value_log'
p705
g4
sg27
g7
sg28
I758931
sg29
I25
sS'deferral_payments_log'
p706
g4
sS'other_log'
p707
g4
sg32
I2
sS'total_payments_log'
p708
g4
sg34
I94556
sS'long_term_incentive_log'
p709
g4
sg36
g7
sg37
g7
sg38
I664375
sS'loan_advances_log'
p710
g4
sS'deferred_income_log'
p711
g4
ssS'KOPPER MICHAEL J'
p712
(dp713
S'expenses_log'
p714
g4
sg5
g7
sg6
g7
sS'bonus_log'
p715
g4
sg9
I118134
sg10
I01
sg11
g7
sS'restricted_stock_log'
p716
g4
sg13
S'michael.kopper@enron.com'
p717
sg15
I602671
sS'restricted_stock_deferred_log'
p718
g4
sS'salary_log'
p719
g4
sg18
g7
sS'director_fees_log'
p720
g4
sg20
g7
sg21
g7
sg22
g7
sg23
I907502
sS'exercised_stock_options_log'
p721
g4
sg25
g7
sS'total_stock_value_log'
p722
g4
sg27
I800000
sg28
I985032
sg29
g7
sS'deferral_payments_log'
p723
g4
sS'other_log'
p724
g4
sg32
g7
sS'total_payments_log'
p725
g4
sg34
I985032
sS'long_term_incentive_log'
p726
g4
sg36
I224305
sg37
I2652612
sg38
g7
sS'loan_advances_log'
p727
g4
sS'deferred_income_log'
p728
g4
ssS'LEFF DANIEL P'
p729
(dp730
S'expenses_log'
p731
g4
sg5
I2822
sg6
g7
sS'bonus_log'
p732
g4
sg9
g7
sg10
I00
sg11
g7
sS'restricted_stock_log'
p733
g4
sg13
S'dan.leff@enron.com'
p734
sg15
I1387399
sS'restricted_stock_deferred_log'
p735
g4
sS'salary_log'
p736
g4
sg18
g7
sS'director_fees_log'
p737
g4
sg20
I2672
sg21
g7
sg22
I63
sg23
I3083
sS'exercised_stock_options_log'
p738
g4
sg25
g7
sS'total_stock_value_log'
p739
g4
sg27
I1000000
sg28
I360528
sg29
I67
sS'deferral_payments_log'
p740
g4
sS'other_log'
p741
g4
sg32
I14
sS'total_payments_log'
p742
g4
sg34
I360528
sS'long_term_incentive_log'
p743
g4
sg36
I273746
sg37
I2664228
sg38
g7
sS'loan_advances_log'
p744
g4
sS'deferred_income_log'
p745
g4
ssS'LAVORATO JOHN J'
p746
(dp747
S'expenses_log'
p748
g4
sg5
I7259
sg6
g7
sS'bonus_log'
p749
g4
sg9
I49537
sg10
I00
sg11
g7
sS'restricted_stock_log'
p750
g4
sg13
S'john.lavorato@enron.com'
p751
sg15
I2035380
sS'restricted_stock_deferred_log'
p752
g4
sS'salary_log'
p753
g4
sg18
g7
sS'director_fees_log'
p754
g4
sg20
I3962
sg21
g7
sg22
I2585
sg23
I1552
sS'exercised_stock_options_log'
p755
g4
sg25
g7
sS'total_stock_value_log'
p756
g4
sg27
I8000000
sg28
I5167144
sg29
I528
sS'deferral_payments_log'
p757
g4
sS'other_log'
p758
g4
sg32
I411
sS'total_payments_log'
p759
g4
sg34
I1008149
sS'long_term_incentive_log'
p760
g4
sg36
I339288
sg37
I10425757
sg38
I4158995
sS'loan_advances_log'
p761
g4
sS'deferred_income_log'
p762
g4
ssS'BERBERIAN DAVID'
p763
(dp764
S'expenses_log'
p765
g4
sg5
g7
sg6
g7
sS'bonus_log'
p766
g4
sg9
I11892
sg10
I00
sg11
g7
sS'restricted_stock_log'
p767
g4
sg13
S'david.berberian@enron.com'
p768
sg15
g7
sS'restricted_stock_deferred_log'
p769
g4
sS'salary_log'
p770
g4
sg18
g7
sS'director_fees_log'
p771
g4
sg20
g7
sg21
g7
sg22
g7
sg23
g7
sS'exercised_stock_options_log'
p772
g4
sg25
g7
sS'total_stock_value_log'
p773
g4
sg27
g7
sg28
I2493616
sg29
g7
sS'deferral_payments_log'
p774
g4
sS'other_log'
p775
g4
sg32
g7
sS'total_payments_log'
p776
g4
sg34
I869220
sS'long_term_incentive_log'
p777
g4
sg36
I216582
sg37
I228474
sg38
I1624396
sS'loan_advances_log'
p778
g4
sS'deferred_income_log'
p779
g4
ssS'DETMERING TIMOTHY J'
p780
(dp781
S'expenses_log'
p782
g4
sg5
g7
sg6
I875307
sS'bonus_log'
p783
g4
sg9
I52255
sg10
I00
sg11
I-775241
sS'restricted_stock_log'
p784
g4
sg13
S'timothy.detmering@enron.com'
p785
sg15
I415657
sS'restricted_stock_deferred_log'
p786
g4
sS'salary_log'
p787
g4
sg18
I-315068
sS'director_fees_log'
p788
g4
sg20
g7
sg21
g7
sg22
g7
sg23
I1105
sS'exercised_stock_options_log'
p789
g4
sg25
g7
sS'total_stock_value_log'
p790
g4
sg27
I425000
sg28
I2027865
sg29
g7
sS'deferral_payments_log'
p791
g4
sS'other_log'
p792
g4
sg32
g7
sS'total_payments_log'
p793
g4
sg34
I315068
sS'long_term_incentive_log'
p794
g4
sg36
I210500
sg37
I1204583
sg38
I2027865
sS'loan_advances_log'
p795
g4
sS'deferred_income_log'
p796
g4
ssS'WAKEHAM JOHN'
p797
(dp798
S'expenses_log'
p799
g4
sg5
g7
sg6
g7
sS'bonus_log'
p800
g4
sg9
I103773
sg10
I00
sg11
g7
sS'restricted_stock_log'
p801
g4
sg13
g7
sg15
g7
sS'restricted_stock_deferred_log'
p802
g4
sS'salary_log'
p803
g4
sg18
g7
sS'director_fees_log'
p804
g4
sg20
g7
sg21
g7
sg22
g7
sg23
g7
sS'exercised_stock_options_log'
p805
g4
sg25
I109298
sS'total_stock_value_log'
p806
g4
sg27
g7
sg28
g7
sg29
g7
sS'deferral_payments_log'
p807
g4
sS'other_log'
p808
g4
sg32
g7
sS'total_payments_log'
p809
g4
sg34
g7
sS'long_term_incentive_log'
p810
g4
sg36
g7
sg37
I213071
sg38
g7
sS'loan_advances_log'
p811
g4
sS'deferred_income_log'
p812
g4
ssS'POWERS WILLIAM'
p813
(dp814
S'expenses_log'
p815
g4
sg5
I653
sg6
g7
sS'bonus_log'
p816
g4
sg9
g7
sg10
I00
sg11
I-17500
sS'restricted_stock_log'
p817
g4
sg13
S'ken.powers@enron.com'
p818
sg15
g7
sS'restricted_stock_deferred_log'
p819
g4
sS'salary_log'
p820
g4
sg18
g7
sS'director_fees_log'
p821
g4
sg20
I12
sg21
g7
sg22
I26
sg23
g7
sS'exercised_stock_options_log'
p822
g4
sg25
I17500
sS'total_stock_value_log'
p823
g4
sg27
g7
sg28
g7
sg29
I0
sS'deferral_payments_log'
p824
g4
sS'other_log'
p825
g4
sg32
I0
sS'total_payments_log'
p826
g4
sg34
g7
sS'long_term_incentive_log'
p827
g4
sg36
g7
sg37
g7
sg38
g7
sS'loan_advances_log'
p828
g4
sS'deferred_income_log'
p829
g4
ssS'GOLD JOSEPH'
p830
(dp831
S'expenses_log'
p832
g4
sg5
g7
sg6
g7
sS'bonus_log'
p833
g4
sg9
g7
sg10
I00
sg11
g7
sS'restricted_stock_log'
p834
g4
sg13
S'joe.gold@enron.com'
p835
sg15
I304805
sS'restricted_stock_deferred_log'
p836
g4
sS'salary_log'
p837
g4
sg18
g7
sS'director_fees_log'
p838
g4
sg20
g7
sg21
g7
sg22
g7
sg23
I819288
sS'exercised_stock_options_log'
p839
g4
sg25
g7
sS'total_stock_value_log'
p840
g4
sg27
I750000
sg28
I877611
sg29
g7
sS'deferral_payments_log'
p841
g4
sS'other_log'
p842
g4
sg32
g7
sS'total_payments_log'
p843
g4
sg34
I441096
sS'long_term_incentive_log'
p844
g4
sg36
I272880
sg37
I2146973
sg38
I436515
sS'loan_advances_log'
p845
g4
sS'deferred_income_log'
p846
g4
ssS'BANNANTINE JAMES M'
p847
(dp848
S'expenses_log'
p849
g4
sg5
I566
sg6
g7
sS'bonus_log'
p850
g4
sg9
I56301
sg10
I00
sg11
I-5104
sS'restricted_stock_log'
p851
g4
sg13
S'james.bannantine@enron.com'
p852
sg15
g7
sS'restricted_stock_deferred_log'
p853
g4
sS'salary_log'
p854
g4
sg18
I-560222
sS'director_fees_log'
p855
g4
sg20
I465
sg21
g7
sg22
I29
sg23
I864523
sS'exercised_stock_options_log'
p856
g4
sg25
g7
sS'total_stock_value_log'
p857
g4
sg27
g7
sg28
I5243487
sg29
I39
sS'deferral_payments_log'
p858
g4
sS'other_log'
p859
g4
sg32
I0
sS'total_payments_log'
p860
g4
sg34
I1757552
sS'long_term_incentive_log'
p861
g4
sg36
I477
sg37
I916197
sg38
I4046157
sS'loan_advances_log'
p862
g4
sS'deferred_income_log'
p863
g4
ssS'DUNCAN JOHN H'
p864
(dp865
S'expenses_log'
p866
g4
sg5
g7
sg6
g7
sS'bonus_log'
p867
g4
sg9
g7
sg10
I00
sg11
I-25000
sS'restricted_stock_log'
p868
g4
sg13
g7
sg15
g7
sS'restricted_stock_deferred_log'
p869
g4
sS'salary_log'
p870
g4
sg18
g7
sS'director_fees_log'
p871
g4
sg20
g7
sg21
g7
sg22
g7
sg23
g7
sS'exercised_stock_options_log'
p872
g4
sg25
I102492
sS'total_stock_value_log'
p873
g4
sg27
g7
sg28
I371750
sg29
g7
sS'deferral_payments_log'
p874
g4
sS'other_log'
p875
g4
sg32
g7
sS'total_payments_log'
p876
g4
sg34
g7
sS'long_term_incentive_log'
p877
g4
sg36
g7
sg37
I77492
sg38
I371750
sS'loan_advances_log'
p878
g4
sS'deferred_income_log'
p879
g4
ssS'SHAPIRO RICHARD S'
p880
(dp881
S'expenses_log'
p882
g4
sg5
I15149
sg6
g7
sS'bonus_log'
p883
g4
sg9
I137767
sg10
I00
sg11
g7
sS'restricted_stock_log'
p884
g4
sg13
S'richard.shapiro@enron.com'
p885
sg15
g7
sS'restricted_stock_deferred_log'
p886
g4
sS'salary_log'
p887
g4
sg18
g7
sS'director_fees_log'
p888
g4
sg20
I4527
sg21
g7
sg22
I1215
sg23
I705
sS'exercised_stock_options_log'
p889
g4
sg25
g7
sS'total_stock_value_log'
p890
g4
sg27
I650000
sg28
I987001
sg29
I74
sS'deferral_payments_log'
p891
g4
sS'other_log'
p892
g4
sg32
I65
sS'total_payments_log'
p893
g4
sg34
I379164
sS'long_term_incentive_log'
p894
g4
sg36
I269076
sg37
I1057548
sg38
I607837
sS'loan_advances_log'
p895
g4
sS'deferred_income_log'
p896
g4
ssS'SHERRIFF JOHN R'
p897
(dp898
S'expenses_log'
p899
g4
sg5
I3187
sg6
g7
sS'bonus_log'
p900
g4
sg9
g7
sg10
I00
sg11
g7
sS'restricted_stock_log'
p901
g4
sg13
S'john.sherriff@enron.com'
p902
sg15
I554422
sS'restricted_stock_deferred_log'
p903
g4
sS'salary_log'
p904
g4
sg18
g7
sS'director_fees_log'
p905
g4
sg20
I2103
sg21
g7
sg22
I92
sg23
I1852186
sS'exercised_stock_options_log'
p906
g4
sg25
g7
sS'total_stock_value_log'
p907
g4
sg27
I1500000
sg28
I3128982
sg29
I28
sS'deferral_payments_log'
p908
g4
sS'other_log'
p909
g4
sg32
I23
sS'total_payments_log'
p910
g4
sg34
I1293424
sS'long_term_incentive_log'
p911
g4
sg36
I428780
sg37
I4335388
sg38
I1835558
sS'loan_advances_log'
p912
g4
sS'deferred_income_log'
p913
g4
ssS'SHELBY REX'
p914
(dp915
S'expenses_log'
p916
g4
sg5
I225
sg6
g7
sS'bonus_log'
p917
g4
sg9
I22884
sg10
I01
sg11
I-4167
sS'restricted_stock_log'
p918
g4
sg13
S'rex.shelby@enron.com'
p919
sg15
g7
sS'restricted_stock_deferred_log'
p920
g4
sS'salary_log'
p921
g4
sg18
g7
sS'director_fees_log'
p922
g4
sg20
I91
sg21
g7
sg22
I39
sg23
I1573324
sS'exercised_stock_options_log'
p923
g4
sg25
g7
sS'total_stock_value_log'
p924
g4
sg27
I200000
sg28
I2493616
sg29
I13
sS'deferral_payments_log'
p925
g4
sS'other_log'
p926
g4
sg32
I14
sS'total_payments_log'
p927
g4
sg34
I869220
sS'long_term_incentive_log'
p928
g4
sg36
I211844
sg37
I2003885
sg38
I1624396
sS'loan_advances_log'
p929
g4
sS'deferred_income_log'
p930
g4
ssS'LEMAISTRE CHARLES'
p931
(dp932
S'expenses_log'
p933
g4
sg5
g7
sg6
g7
sS'bonus_log'
p934
g4
sg9
g7
sg10
I00
sg11
I-25000
sS'restricted_stock_log'
p935
g4
sg13
g7
sg15
g7
sS'restricted_stock_deferred_log'
p936
g4
sS'salary_log'
p937
g4
sg18
g7
sS'director_fees_log'
p938
g4
sg20
g7
sg21
g7
sg22
g7
sg23
g7
sS'exercised_stock_options_log'
p939
g4
sg25
I112492
sS'total_stock_value_log'
p940
g4
sg27
g7
sg28
I412878
sg29
g7
sS'deferral_payments_log'
p941
g4
sS'other_log'
p942
g4
sg32
g7
sS'total_payments_log'
p943
g4
sg34
g7
sS'long_term_incentive_log'
p944
g4
sg36
g7
sg37
I87492
sg38
I412878
sS'loan_advances_log'
p945
g4
sS'deferred_income_log'
p946
g4
ssS'DEFFNER JOSEPH M'
p947
(dp948
S'expenses_log'
p949
g4
sg5
I714
sg6
g7
sS'bonus_log'
p950
g4
sg9
I41626
sg10
I00
sg11
g7
sS'restricted_stock_log'
p951
g4
sg13
S'joseph.deffner@enron.com'
p952
sg15
I335349
sS'restricted_stock_deferred_log'
p953
g4
sS'salary_log'
p954
g4
sg18
g7
sS'director_fees_log'
p955
g4
sg20
I552
sg21
g7
sg22
I74
sg23
I25553
sS'exercised_stock_options_log'
p956
g4
sg25
g7
sS'total_stock_value_log'
p957
g4
sg27
I600000
sg28
I159211
sg29
I115
sS'deferral_payments_log'
p958
g4
sS'other_log'
p959
g4
sg32
I4
sS'total_payments_log'
p960
g4
sg34
I141833
sS'long_term_incentive_log'
p961
g4
sg36
I206121
sg37
I1208649
sg38
I17378
sS'loan_advances_log'
p962
g4
sS'deferred_income_log'
p963
g4
ssS'KISHKILL JOSEPH G'
p964
(dp965
S'expenses_log'
p966
g4
sg5
g7
sg6
g7
sS'bonus_log'
p967
g4
sg9
I116335
sg10
I00
sg11
I-51042
sS'restricted_stock_log'
p968
g4
sg13
S'joe.kishkill@enron.com'
p969
sg15
g7
sS'restricted_stock_deferred_log'
p970
g4
sS'salary_log'
p971
g4
sg18
g7
sS'director_fees_log'
p972
g4
sg20
g7
sg21
g7
sg22
g7
sg23
I465357
sS'exercised_stock_options_log'
p973
g4
sg25
g7
sS'total_stock_value_log'
p974
g4
sg27
g7
sg28
I1034346
sg29
g7
sS'deferral_payments_log'
p975
g4
sS'other_log'
p976
g4
sg32
g7
sS'total_payments_log'
p977
g4
sg34
I1034346
sS'long_term_incentive_log'
p978
g4
sg36
I174246
sg37
I704896
sg38
g7
sS'loan_advances_log'
p979
g4
sS'deferred_income_log'
p980
g4
ssS'WHALLEY LAWRENCE G'
p981
(dp982
S'expenses_log'
p983
g4
sg5
I6019
sg6
g7
sS'bonus_log'
p984
g4
sg9
I57838
sg10
I00
sg11
g7
sS'restricted_stock_log'
p985
g4
sg13
S'greg.whalley@enron.com'
p986
sg15
I808346
sS'restricted_stock_deferred_log'
p987
g4
sS'salary_log'
p988
g4
sg18
g7
sS'director_fees_log'
p989
g4
sg20
I3920
sg21
g7
sg22
I556
sg23
I301026
sS'exercised_stock_options_log'
p990
g4
sg25
g7
sS'total_stock_value_log'
p991
g4
sg27
I3000000
sg28
I6079137
sg29
I186
sS'deferral_payments_log'
p992
g4
sS'other_log'
p993
g4
sg32
I24
sS'total_payments_log'
p994
g4
sg34
I2796177
sS'long_term_incentive_log'
p995
g4
sg36
I510364
sg37
I4677574
sg38
I3282960
sS'loan_advances_log'
p996
g4
sS'deferred_income_log'
p997
g4
ssS'MCCONNELL MICHAEL S'
p998
(dp999
S'expenses_log'
p1000
g4
sg5
I3329
sg6
g7
sS'bonus_log'
p1001
g4
sg9
I81364
sg10
I00
sg11
g7
sS'restricted_stock_log'
p1002
g4
sg13
S'mike.mcconnell@enron.com'
p1003
sg15
I554422
sS'restricted_stock_deferred_log'
p1004
g4
sS'salary_log'
p1005
g4
sg18
g7
sS'director_fees_log'
p1006
g4
sg20
I2189
sg21
g7
sg22
I2742
sg23
I540
sS'exercised_stock_options_log'
p1007
g4
sg25
g7
sS'total_stock_value_log'
p1008
g4
sg27
I1100000
sg28
I3101279
sg29
I92
sS'deferral_payments_log'
p1009
g4
sS'other_log'
p1010
g4
sg32
I194
sS'total_payments_log'
p1011
g4
sg34
I1478269
sS'long_term_incentive_log'
p1012
g4
sg36
I365038
sg37
I2101364
sg38
I1623010
sS'loan_advances_log'
p1013
g4
sS'deferred_income_log'
p1014
g4
ssS'PIRO JIM'
p1015
(dp1016
S'expenses_log'
p1017
g4
sg5
I58
sg6
g7
sS'bonus_log'
p1018
g4
sg9
g7
sg10
I00
sg11
g7
sS'restricted_stock_log'
p1019
g4
sg13
S'jim.piro@enron.com'
p1020
sg15
g7
sS'restricted_stock_deferred_log'
p1021
g4
sS'salary_log'
p1022
g4
sg18
g7
sS'director_fees_log'
p1023
g4
sg20
I3
sg21
g7
sg22
I16
sg23
g7
sS'exercised_stock_options_log'
p1024
g4
sg25
g7
sS'total_stock_value_log'
p1025
g4
sg27
g7
sg28
I47304
sg29
I0
sS'deferral_payments_log'
p1026
g4
sS'other_log'
p1027
g4
sg32
I1
sS'total_payments_log'
p1028
g4
sg34
I47304
sS'long_term_incentive_log'
p1029
g4
sg36
g7
sg37
g7
sg38
g7
sS'loan_advances_log'
p1030
g4
sS'deferred_income_log'
p1031
g4
ssS'DELAINEY DAVID W'
p1032
(dp1033
S'expenses_log'
p1034
g4
sg5
I3093
sg6
g7
sS'bonus_log'
p1035
g4
sg9
I86174
sg10
I01
sg11
g7
sS'restricted_stock_log'
p1036
g4
sg13
S'david.delainey@enron.com'
p1037
sg15
I1294981
sS'restricted_stock_deferred_log'
p1038
g4
sS'salary_log'
p1039
g4
sg18
g7
sS'director_fees_log'
p1040
g4
sg20
I2097
sg21
g7
sg22
I3069
sg23
I1661
sS'exercised_stock_options_log'
p1041
g4
sg25
g7
sS'total_stock_value_log'
p1042
g4
sg27
I3000000
sg28
I3614261
sg29
I66
sS'deferral_payments_log'
p1043
g4
sS'other_log'
p1044
g4
sg32
I609
sS'total_payments_log'
p1045
g4
sg34
I1323148
sS'long_term_incentive_log'
p1046
g4
sg36
I365163
sg37
I4747979
sg38
I2291113
sS'loan_advances_log'
p1047
g4
sS'deferred_income_log'
p1048
g4
ssS'SULLIVAN-SHAKLOVITZ COLLEEN'
p1049
(dp1050
S'expenses_log'
p1051
g4
sg5
g7
sg6
I181993
sS'bonus_log'
p1052
g4
sg9
g7
sg10
I00
sg11
g7
sS'restricted_stock_log'
p1053
g4
sg13
g7
sg15
I554422
sS'restricted_stock_deferred_log'
p1054
g4
sS'salary_log'
p1055
g4
sg18
g7
sS'director_fees_log'
p1056
g4
sg20
g7
sg21
g7
sg22
g7
sg23
I162
sS'exercised_stock_options_log'
p1057
g4
sg25
g7
sS'total_stock_value_log'
p1058
g4
sg27
I100000
sg28
I1362375
sg29
g7
sS'deferral_payments_log'
p1059
g4
sS'other_log'
p1060
g4
sg32
g7
sS'total_payments_log'
p1061
g4
sg34
g7
sS'long_term_incentive_log'
p1062
g4
sg36
I162779
sg37
I999356
sg38
I1362375
sS'loan_advances_log'
p1063
g4
sS'deferred_income_log'
p1064
g4
ssS'WROBEL BRUCE'
p1065
(dp1066
S'expenses_log'
p1067
g4
sg5
g7
sg6
g7
sS'bonus_log'
p1068
g4
sg9
g7
sg10
I00
sg11
g7
sS'restricted_stock_log'
p1069
g4
sg13
g7
sg15
g7
sS'restricted_stock_deferred_log'
p1070
g4
sS'salary_log'
p1071
g4
sg18
g7
sS'director_fees_log'
p1072
g4
sg20
g7
sg21
g7
sg22
g7
sg23
g7
sS'exercised_stock_options_log'
p1073
g4
sg25
g7
sS'total_stock_value_log'
p1074
g4
sg27
g7
sg28
I139130
sg29
g7
sS'deferral_payments_log'
p1075
g4
sS'other_log'
p1076
g4
sg32
g7
sS'total_payments_log'
p1077
g4
sg34
g7
sS'long_term_incentive_log'
p1078
g4
sg36
g7
sg37
g7
sg38
I139130
sS'loan_advances_log'
p1079
g4
sS'deferred_income_log'
p1080
g4
ssS'LINDHOLM TOD A'
p1081
(dp1082
S'expenses_log'
p1083
g4
sg5
g7
sg6
I204075
sS'bonus_log'
p1084
g4
sg9
I57727
sg10
I00
sg11
g7
sS'restricted_stock_log'
p1085
g4
sg13
S'tod.lindholm@enron.com'
p1086
sg15
I175000
sS'restricted_stock_deferred_log'
p1087
g4
sS'salary_log'
p1088
g4
sg18
g7
sS'director_fees_log'
p1089
g4
sg20
g7
sg21
g7
sg22
g7
sg23
I2630
sS'exercised_stock_options_log'
p1090
g4
sg25
g7
sS'total_stock_value_log'
p1091
g4
sg27
I200000
sg28
I3064208
sg29
g7
sS'deferral_payments_log'
p1092
g4
sS'other_log'
p1093
g4
sg32
g7
sS'total_payments_log'
p1094
g4
sg34
I514847
sS'long_term_incentive_log'
p1095
g4
sg36
I236457
sg37
I875889
sg38
I2549361
sS'loan_advances_log'
p1096
g4
sS'deferred_income_log'
p1097
g4
ssS'MEYER JEROME J'
p1098
(dp1099
S'expenses_log'
p1100
g4
sg5
g7
sg6
g7
sS'bonus_log'
p1101
g4
sg9
I2151
sg10
I00
sg11
I-38346
sS'restricted_stock_log'
p1102
g4
sg13
g7
sg15
g7
sS'restricted_stock_deferred_log'
p1103
g4
sS'salary_log'
p1104
g4
sg18
g7
sS'director_fees_log'
p1105
g4
sg20
g7
sg21
g7
sg22
g7
sg23
g7
sS'exercised_stock_options_log'
p1106
g4
sg25
I38346
sS'total_stock_value_log'
p1107
g4
sg27
g7
sg28
g7
sg29
g7
sS'deferral_payments_log'
p1108
g4
sS'other_log'
p1109
g4
sg32
g7
sS'total_payments_log'
p1110
g4
sg34
g7
sS'long_term_incentive_log'
p1111
g4
sg36
g7
sg37
I2151
sg38
g7
sS'loan_advances_log'
p1112
g4
sS'deferred_income_log'
p1113
g4
ssS'LAY KENNETH L'
p1114
(dp1115
S'expenses_log'
p1116
g4
sg5
I4273
sg6
I202911
sS'bonus_log'
p1117
g4
sg9
I99832
sg10
I01
sg11
I-300000
sS'restricted_stock_log'
p1118
g4
sg13
S'kenneth.lay@enron.com'
p1119
sg15
I3600000
sS'restricted_stock_deferred_log'
p1120
g4
sS'salary_log'
p1121
g4
sg18
g7
sS'director_fees_log'
p1122
g4
sg20
I2411
sg21
I81525000
sg22
I36
sg23
I10359729
sS'exercised_stock_options_log'
p1123
g4
sg25
g7
sS'total_stock_value_log'
p1124
g4
sg27
I7000000
sg28
I49110078
sg29
I123
sS'deferral_payments_log'
p1125
g4
sS'other_log'
p1126
g4
sg32
I16
sS'total_payments_log'
p1127
g4
sg34
I14761694
sS'long_term_incentive_log'
p1128
g4
sg36
I1072321
sg37
I103559793
sg38
I34348384
sS'loan_advances_log'
p1129
g4
sS'deferred_income_log'
p1130
g4
ssS'BUTTS ROBERT H'
p1131
(dp1132
S'expenses_log'
p1133
g4
sg5
g7
sg6
g7
sS'bonus_log'
p1134
g4
sg9
I9410
sg10
I00
sg11
I-75000
sS'restricted_stock_log'
p1135
g4
sg13
S'bob.butts@enron.com'
p1136
sg15
I175000
sS'restricted_stock_deferred_log'
p1137
g4
sS'salary_log'
p1138
g4
sg18
g7
sS'director_fees_log'
p1139
g4
sg20
g7
sg21
g7
sg22
g7
sg23
I150656
sS'exercised_stock_options_log'
p1140
g4
sg25
g7
sS'total_stock_value_log'
p1141
g4
sg27
I750000
sg28
I417619
sg29
g7
sS'deferral_payments_log'
p1142
g4
sS'other_log'
p1143
g4
sg32
g7
sS'total_payments_log'
p1144
g4
sg34
I417619
sS'long_term_incentive_log'
p1145
g4
sg36
I261516
sg37
I1271582
sg38
g7
sS'loan_advances_log'
p1146
g4
sS'deferred_income_log'
p1147
g4
ssS'OLSON CINDY K'
p1148
(dp1149
S'expenses_log'
p1150
g4
sg5
I1184
sg6
I77716
sS'bonus_log'
p1151
g4
sg9
I63791
sg10
I00
sg11
g7
sS'restricted_stock_log'
p1152
g4
sg13
S'cindy.olson@enron.com'
p1153
sg15
I100000
sS'restricted_stock_deferred_log'
p1154
g4
sS'salary_log'
p1155
g4
sg18
g7
sS'director_fees_log'
p1156
g4
sg20
I856
sg21
g7
sg22
I52
sg23
I972
sS'exercised_stock_options_log'
p1157
g4
sg25
g7
sS'total_stock_value_log'
p1158
g4
sg27
I750000
sg28
I2606763
sg29
I20
sS'deferral_payments_log'
p1159
g4
sS'other_log'
p1160
g4
sg32
I15
sS'total_payments_log'
p1161
g4
sg34
I969729
sS'long_term_incentive_log'
p1162
g4
sg36
I329078
sg37
I1321557
sg38
I1637034
sS'loan_advances_log'
p1163
g4
sS'deferred_income_log'
p1164
g4
ssS'MCDONALD REBECCA'
p1165
(dp1166
S'expenses_log'
p1167
g4
sg5
I894
sg6
g7
sS'bonus_log'
p1168
g4
sg9
g7
sg10
I00
sg11
g7
sS'restricted_stock_log'
p1169
g4
sg13
S'rebecca.mcdonald@enron.com'
p1170
sg15
g7
sS'restricted_stock_deferred_log'
p1171
g4
sS'salary_log'
p1172
g4
sg18
g7
sS'director_fees_log'
p1173
g4
sg20
I720
sg21
g7
sg22
I13
sg23
g7
sS'exercised_stock_options_log'
p1174
g4
sg25
g7
sS'total_stock_value_log'
p1175
g4
sg27
g7
sg28
I1691366
sg29
I54
sS'deferral_payments_log'
p1176
g4
sS'other_log'
p1177
g4
sg32
I1
sS'total_payments_log'
p1178
g4
sg34
I934065
sS'long_term_incentive_log'
p1179
g4
sg36
g7
sg37
g7
sg38
I757301
sS'loan_advances_log'
p1180
g4
sS'deferred_income_log'
p1181
g4
ssS'CUMBERLAND MICHAEL S'
p1182
(dp1183
S'expenses_log'
p1184
g4
sg5
g7
sg6
g7
sS'bonus_log'
p1185
g4
sg9
I22344
sg10
I00
sg11
g7
sS'restricted_stock_log'
p1186
g4
sg13
g7
sg15
I275000
sS'restricted_stock_deferred_log'
p1187
g4
sS'salary_log'
p1188
g4
sg18
g7
sS'director_fees_log'
p1189
g4
sg20
g7
sg21
g7
sg22
g7
sg23
I713
sS'exercised_stock_options_log'
p1190
g4
sg25
g7
sS'total_stock_value_log'
p1191
g4
sg27
I325000
sg28
I207940
sg29
g7
sS'deferral_payments_log'
p1192
g4
sS'other_log'
p1193
g4
sg32
g7
sS'total_payments_log'
p1194
g4
sg34
I207940
sS'long_term_incentive_log'
p1195
g4
sg36
I184899
sg37
I807956
sg38
g7
sS'loan_advances_log'
p1196
g4
sS'deferred_income_log'
p1197
g4
ssS'GAHN ROBERT S'
p1198
(dp1199
S'expenses_log'
p1200
g4
sg5
g7
sg6
I73122
sS'bonus_log'
p1201
g4
sg9
I50080
sg10
I00
sg11
I-1042
sS'restricted_stock_log'
p1202
g4
sg13
g7
sg15
g7
sS'restricted_stock_deferred_log'
p1203
g4
sS'salary_log'
p1204
g4
sg18
g7
sS'director_fees_log'
p1205
g4
sg20
g7
sg21
g7
sg22
g7
sg23
I76547
sS'exercised_stock_options_log'
p1206
g4
sg25
g7
sS'total_stock_value_log'
p1207
g4
sg27
I509870
sg28
I318607
sg29
g7
sS'deferral_payments_log'
p1208
g4
sS'other_log'
p1209
g4
sg32
g7
sS'total_payments_log'
p1210
g4
sg34
I235370
sS'long_term_incentive_log'
p1211
g4
sg36
I192008
sg37
I900585
sg38
I83237
sS'loan_advances_log'
p1212
g4
sS'deferred_income_log'
p1213
g4
ssS'MCCLELLAN GEORGE'
p1214
(dp1215
S'expenses_log'
p1216
g4
sg5
I1744
sg6
g7
sS'bonus_log'
p1217
g4
sg9
I228763
sg10
I00
sg11
I-125000
sS'restricted_stock_log'
p1218
g4
sg13
S'george.mcclellan@enron.com'
p1219
sg15
g7
sS'restricted_stock_deferred_log'
p1220
g4
sS'salary_log'
p1221
g4
sg18
g7
sS'director_fees_log'
p1222
g4
sg20
I1469
sg21
g7
sg22
I49
sg23
I51587
sS'exercised_stock_options_log'
p1223
g4
sg25
g7
sS'total_stock_value_log'
p1224
g4
sg27
I900000
sg28
I947861
sg29
I52
sS'deferral_payments_log'
p1225
g4
sS'other_log'
p1226
g4
sg32
I0
sS'total_payments_log'
p1227
g4
sg34
I441096
sS'long_term_incentive_log'
p1228
g4
sg36
I263413
sg37
I1318763
sg38
I506765
sS'loan_advances_log'
p1229
g4
sS'deferred_income_log'
p1230
g4
ssS'HERMANN ROBERT J'
p1231
(dp1232
S'expenses_log'
p1233
g4
sg5
g7
sg6
g7
sS'bonus_log'
p1234
g4
sg9
I48357
sg10
I00
sg11
I-280000
sS'restricted_stock_log'
p1235
g4
sg13
S'robert.hermann@enron.com'
p1236
sg15
I150000
sS'restricted_stock_deferred_log'
p1237
g4
sS'salary_log'
p1238
g4
sg18
g7
sS'director_fees_log'
p1239
g4
sg20
g7
sg21
g7
sg22
g7
sg23
I416441
sS'exercised_stock_options_log'
p1240
g4
sg25
g7
sS'total_stock_value_log'
p1241
g4
sg27
I700000
sg28
I668132
sg29
g7
sS'deferral_payments_log'
p1242
g4
sS'other_log'
p1243
g4
sg32
g7
sS'total_payments_log'
p1244
g4
sg34
I480632
sS'long_term_incentive_log'
p1245
g4
sg36
I262663
sg37
I1297461
sg38
I187500
sS'loan_advances_log'
p1246
g4
sS'deferred_income_log'
p1247
g4
ssS'SCRIMSHAW MATTHEW'
p1248
(dp1249
S'expenses_log'
p1250
g4
sg5
g7
sg6
g7
sS'bonus_log'
p1251
g4
sg9
g7
sg10
I00
sg11
g7
sS'restricted_stock_log'
p1252
g4
sg13
S'matthew.scrimshaw@enron.com'
p1253
sg15
g7
sS'restricted_stock_deferred_log'
p1254
g4
sS'salary_log'
p1255
g4
sg18
g7
sS'director_fees_log'
p1256
g4
sg20
g7
sg21
g7
sg22
g7
sg23
g7
sS'exercised_stock_options_log'
p1257
g4
sg25
g7
sS'total_stock_value_log'
p1258
g4
sg27
g7
sg28
I759557
sg29
g7
sS'deferral_payments_log'
p1259
g4
sS'other_log'
p1260
g4
sg32
g7
sS'total_payments_log'
p1261
g4
sg34
g7
sS'long_term_incentive_log'
p1262
g4
sg36
g7
sg37
g7
sg38
I759557
sS'loan_advances_log'
p1263
g4
sS'deferred_income_log'
p1264
g4
ssS'GATHMANN WILLIAM D'
p1265
(dp1266
S'expenses_log'
p1267
g4
sg5
g7
sg6
g7
sS'bonus_log'
p1268
g4
sg9
g7
sg10
I00
sg11
g7
sS'restricted_stock_log'
p1269
g4
sg13
g7
sg15
g7
sS'restricted_stock_deferred_log'
p1270
g4
sS'salary_log'
p1271
g4
sg18
I-72419
sS'director_fees_log'
p1272
g4
sg20
g7
sg21
g7
sg22
g7
sg23
g7
sS'exercised_stock_options_log'
p1273
g4
sg25
g7
sS'total_stock_value_log'
p1274
g4
sg27
g7
sg28
I1945360
sg29
g7
sS'deferral_payments_log'
p1275
g4
sS'other_log'
p1276
g4
sg32
g7
sS'total_payments_log'
p1277
g4
sg34
I264013
sS'long_term_incentive_log'
p1278
g4
sg36
g7
sg37
g7
sg38
I1753766
sS'loan_advances_log'
p1279
g4
sS'deferred_income_log'
p1280
g4
ssS'HAEDICKE MARK E'
p1281
(dp1282
S'expenses_log'
p1283
g4
sg5
I4009
sg6
I2157527
sS'bonus_log'
p1284
g4
sg9
I76169
sg10
I00
sg11
I-934484
sS'restricted_stock_log'
p1285
g4
sg13
S'mark.haedicke@enron.com'
p1286
sg15
I983346
sS'restricted_stock_deferred_log'
p1287
g4
sS'salary_log'
p1288
g4
sg18
I-329825
sS'director_fees_log'
p1289
g4
sg20
I1847
sg21
g7
sg22
I1941
sg23
I52382
sS'exercised_stock_options_log'
p1290
g4
sg25
g7
sS'total_stock_value_log'
p1291
g4
sg27
I1150000
sg28
I803094
sg29
I180
sS'deferral_payments_log'
p1292
g4
sS'other_log'
p1293
g4
sg32
I61
sS'total_payments_log'
p1294
g4
sg34
I524169
sS'long_term_incentive_log'
p1295
g4
sg36
I374125
sg37
I3859065
sg38
I608750
sS'loan_advances_log'
p1296
g4
sS'deferred_income_log'
p1297
g4
ssS'BOWEN JR RAYMOND M'
p1298
(dp1299
S'expenses_log'
p1300
g4
sg5
I1858
sg6
g7
sS'bonus_log'
p1301
g4
sg9
I65907
sg10
I01
sg11
I-833
sS'restricted_stock_log'
p1302
g4
sg13
S'raymond.bowen@enron.com'
p1303
sg15
I974293
sS'restricted_stock_deferred_log'
p1304
g4
sS'salary_log'
p1305
g4
sg18
g7
sS'director_fees_log'
p1306
g4
sg20
I1593
sg21
g7
sg22
I27
sg23
I1621
sS'exercised_stock_options_log'
p1307
g4
sg25
g7
sS'total_stock_value_log'
p1308
g4
sg27
I1350000
sg28
I252055
sg29
I140
sS'deferral_payments_log'
p1309
g4
sS'other_log'
p1310
g4
sg32
I15
sS'total_payments_log'
p1311
g4
sg34
I252055
sS'long_term_incentive_log'
p1312
g4
sg36
I278601
sg37
I2669589
sg38
g7
sS'loan_advances_log'
p1313
g4
sS'deferred_income_log'
p1314
g4
ssS'GILLIS JOHN'
p1315
(dp1316
S'expenses_log'
p1317
g4
sg5
g7
sg6
g7
sS'bonus_log'
p1318
g4
sg9
g7
sg10
I00
sg11
g7
sS'restricted_stock_log'
p1319
g4
sg13
g7
sg15
g7
sS'restricted_stock_deferred_log'
p1320
g4
sS'salary_log'
p1321
g4
sg18
g7
sS'director_fees_log'
p1322
g4
sg20
g7
sg21
g7
sg22
g7
sg23
g7
sS'exercised_stock_options_log'
p1323
g4
sg25
g7
sS'total_stock_value_log'
p1324
g4
sg27
g7
sg28
I85641
sg29
g7
sS'deferral_payments_log'
p1325
g4
sS'other_log'
p1326
g4
sg32
g7
sS'total_payments_log'
p1327
g4
sg34
I75838
sS'long_term_incentive_log'
p1328
g4
sg36
g7
sg37
g7
sg38
I9803
sS'loan_advances_log'
p1329
g4
sS'deferred_income_log'
p1330
g4
ssS'FITZGERALD JAY L'
p1331
(dp1332
S'expenses_log'
p1333
g4
sg5
I936
sg6
g7
sS'bonus_log'
p1334
g4
sg9
I23870
sg10
I00
sg11
g7
sS'restricted_stock_log'
p1335
g4
sg13
S'jay.fitzgerald@enron.com'
p1336
sg15
I556416
sS'restricted_stock_deferred_log'
p1337
g4
sS'salary_log'
p1338
g4
sg18
g7
sS'director_fees_log'
p1339
g4
sg20
I723
sg21
g7
sg22
I16
sg23
I285414
sS'exercised_stock_options_log'
p1340
g4
sg25
g7
sS'total_stock_value_log'
p1341
g4
sg27
I350000
sg28
I1621236
sg29
I1
sS'deferral_payments_log'
p1342
g4
sS'other_log'
p1343
g4
sg32
I8
sS'total_payments_log'
p1344
g4
sg34
I956775
sS'long_term_incentive_log'
p1345
g4
sg36
I199157
sg37
I1414857
sg38
I664461
sS'loan_advances_log'
p1346
g4
sS'deferred_income_log'
p1347
g4
ssS'MORAN MICHAEL P'
p1348
(dp1349
S'expenses_log'
p1350
g4
sg5
I672
sg6
g7
sS'bonus_log'
p1351
g4
sg9
g7
sg10
I00
sg11
g7
sS'restricted_stock_log'
p1352
g4
sg13
S'michael.moran@enron.com'
p1353
sg15
g7
sS'restricted_stock_deferred_log'
p1354
g4
sS'salary_log'
p1355
g4
sg18
g7
sS'director_fees_log'
p1356
g4
sg20
I127
sg21
g7
sg22
I19
sg23
g7
sS'exercised_stock_options_log'
p1357
g4
sg25
g7
sS'total_stock_value_log'
p1358
g4
sg27
g7
sg28
I221141
sg29
I0
sS'deferral_payments_log'
p1359
g4
sS'other_log'
p1360
g4
sg32
I0
sS'total_payments_log'
p1361
g4
sg34
I161602
sS'long_term_incentive_log'
p1362
g4
sg36
g7
sg37
g7
sg38
I59539
sS'loan_advances_log'
p1363
g4
sS'deferred_income_log'
p1364
g4
ssS'REDMOND BRIAN L'
p1365
(dp1366
S'expenses_log'
p1367
g4
sg5
I1671
sg6
g7
sS'bonus_log'
p1368
g4
sg9
I14689
sg10
I00
sg11
g7
sS'restricted_stock_log'
p1369
g4
sg13
S'brian.redmond@enron.com'
p1370
sg15
g7
sS'restricted_stock_deferred_log'
p1371
g4
sS'salary_log'
p1372
g4
sg18
g7
sS'director_fees_log'
p1373
g4
sg20
I1063
sg21
g7
sg22
I221
sg23
g7
sS'exercised_stock_options_log'
p1374
g4
sg25
g7
sS'total_stock_value_log'
p1375
g4
sg27
g7
sg28
I7890324
sg29
I204
sS'deferral_payments_log'
p1376
g4
sS'other_log'
p1377
g4
sg32
I49
sS'total_payments_log'
p1378
g4
sg34
I381285
sS'long_term_incentive_log'
p1379
g4
sg36
I96840
sg37
I111529
sg38
I7509039
sS'loan_advances_log'
p1380
g4
sS'deferred_income_log'
p1381
g4
ssS'BAZELIDES PHILIP J'
p1382
(dp1383
S'expenses_log'
p1384
g4
sg5
g7
sg6
I684694
sS'bonus_log'
p1385
g4
sg9
g7
sg10
I00
sg11
g7
sS'restricted_stock_log'
p1386
g4
sg13
g7
sg15
I93750
sS'restricted_stock_deferred_log'
p1387
g4
sS'salary_log'
p1388
g4
sg18
g7
sS'director_fees_log'
p1389
g4
sg20
g7
sg21
g7
sg22
g7
sg23
I874
sS'exercised_stock_options_log'
p1390
g4
sg25
g7
sS'total_stock_value_log'
p1391
g4
sg27
g7
sg28
I1599641
sg29
g7
sS'deferral_payments_log'
p1392
g4
sS'other_log'
p1393
g4
sg32
g7
sS'total_payments_log'
p1394
g4
sg34
g7
sS'long_term_incentive_log'
p1395
g4
sg36
I80818
sg37
I860136
sg38
I1599641
sS'loan_advances_log'
p1396
g4
sS'deferred_income_log'
p1397
g4
ssS'BELDEN TIMOTHY N'
p1398
(dp1399
S'expenses_log'
p1400
g4
sg5
I7991
sg6
I2144013
sS'bonus_log'
p1401
g4
sg9
I17355
sg10
I01
sg11
I-2334434
sS'restricted_stock_log'
p1402
g4
sg13
S'tim.belden@enron.com'
p1403
sg15
g7
sS'restricted_stock_deferred_log'
p1404
g4
sS'salary_log'
p1405
g4
sg18
g7
sS'director_fees_log'
p1406
g4
sg20
I5521
sg21
g7
sg22
I484
sg23
I210698
sS'exercised_stock_options_log'
p1407
g4
sg25
g7
sS'total_stock_value_log'
p1408
g4
sg27
I5249999
sg28
I1110705
sg29
I228
sS'deferral_payments_log'
p1409
g4
sS'other_log'
p1410
g4
sg32
I108
sS'total_payments_log'
p1411
g4
sg34
I157569
sS'long_term_incentive_log'
p1412
g4
sg36
I213999
sg37
I5501630
sg38
I953136
sS'loan_advances_log'
p1413
g4
sS'deferred_income_log'
p1414
g4
ssS'DURAN WILLIAM D'
p1415
(dp1416
S'expenses_log'
p1417
g4
sg5
I904
sg6
g7
sS'bonus_log'
p1418
g4
sg9
I25785
sg10
I00
sg11
g7
sS'restricted_stock_log'
p1419
g4
sg13
S'w.duran@enron.com'
p1420
sg15
I1105218
sS'restricted_stock_deferred_log'
p1421
g4
sS'salary_log'
p1422
g4
sg18
g7
sS'director_fees_log'
p1423
g4
sg20
I599
sg21
g7
sg22
I12
sg23
I1568
sS'exercised_stock_options_log'
p1424
g4
sg25
g7
sS'total_stock_value_log'
p1425
g4
sg27
I750000
sg28
I1640910
sg29
I106
sS'deferral_payments_log'
p1426
g4
sS'other_log'
p1427
g4
sg32
I3
sS'total_payments_log'
p1428
g4
sg34
I189041
sS'long_term_incentive_log'
p1429
g4
sg36
I210692
sg37
I2093263
sg38
I1451869
sS'loan_advances_log'
p1430
g4
sS'deferred_income_log'
p1431
g4
ssS'THORN TERENCE H'
p1432
(dp1433
S'expenses_log'
p1434
g4
sg5
I266
sg6
I16586
sS'bonus_log'
p1435
g4
sg9
I46145
sg10
I00
sg11
g7
sS'restricted_stock_log'
p1436
g4
sg13
S'terence.thorn@enron.com'
p1437
sg15
I200000
sS'restricted_stock_deferred_log'
p1438
g4
sS'salary_log'
p1439
g4
sg18
g7
sS'director_fees_log'
p1440
g4
sg20
I73
sg21
g7
sg22
I41
sg23
I426629
sS'exercised_stock_options_log'
p1441
g4
sg25
g7
sS'total_stock_value_log'
p1442
g4
sg27
g7
sg28
I4817796
sg29
I0
sS'deferral_payments_log'
p1443
g4
sS'other_log'
p1444
g4
sg32
I0
sS'total_payments_log'
p1445
g4
sg34
I365320
sS'long_term_incentive_log'
p1446
g4
sg36
I222093
sg37
I911453
sg38
I4452476
sS'loan_advances_log'
p1447
g4
sS'deferred_income_log'
p1448
g4
ssS'FASTOW ANDREW S'
p1449
(dp1450
S'expenses_log'
p1451
g4
sg5
g7
sg6
g7
sS'bonus_log'
p1452
g4
sg9
I55921
sg10
I01
sg11
I-1386055
sS'restricted_stock_log'
p1453
g4
sg13
S'andrew.fastow@enron.com'
p1454
sg15
I1736055
sS'restricted_stock_deferred_log'
p1455
g4
sS'salary_log'
p1456
g4
sg18
g7
sS'director_fees_log'
p1457
g4
sg20
g7
sg21
g7
sg22
g7
sg23
I277464
sS'exercised_stock_options_log'
p1458
g4
sg25
g7
sS'total_stock_value_log'
p1459
g4
sg27
I1300000
sg28
I1794412
sg29
g7
sS'deferral_payments_log'
p1460
g4
sS'other_log'
p1461
g4
sg32
g7
sS'total_payments_log'
p1462
g4
sg34
I1794412
sS'long_term_incentive_log'
p1463
g4
sg36
I440698
sg37
I2424083
sg38
g7
sS'loan_advances_log'
p1464
g4
sS'deferred_income_log'
p1465
g4
ssS'FOY JOE'
p1466
(dp1467
S'expenses_log'
p1468
g4
sg5
I57
sg6
I181755
sS'bonus_log'
p1469
g4
sg9
g7
sg10
I00
sg11
g7
sS'restricted_stock_log'
p1470
g4
sg13
S'tracy.foy@enron.com'
p1471
sg15
g7
sS'restricted_stock_deferred_log'
p1472
g4
sS'salary_log'
p1473
g4
sg18
g7
sS'director_fees_log'
p1474
g4
sg20
I2
sg21
g7
sg22
I13
sg23
g7
sS'exercised_stock_options_log'
p1475
g4
sg25
g7
sS'total_stock_value_log'
p1476
g4
sg27
g7
sg28
I343434
sg29
I0
sS'deferral_payments_log'
p1477
g4
sS'other_log'
p1478
g4
sg32
I0
sS'total_payments_log'
p1479
g4
sg34
g7
sS'long_term_incentive_log'
p1480
g4
sg36
g7
sg37
I181755
sg38
I343434
sS'loan_advances_log'
p1481
g4
sS'deferred_income_log'
p1482
g4
ssS'CALGER CHRISTOPHER F'
p1483
(dp1484
S'expenses_log'
p1485
g4
sg5
I2598
sg6
g7
sS'bonus_log'
p1486
g4
sg9
I35818
sg10
I01
sg11
I-262500
sS'restricted_stock_log'
p1487
g4
sg13
S'christopher.calger@enron.com'
p1488
sg15
I375304
sS'restricted_stock_deferred_log'
p1489
g4
sS'salary_log'
p1490
g4
sg18
g7
sS'director_fees_log'
p1491
g4
sg20
I2188
sg21
g7
sg22
I144
sg23
I486
sS'exercised_stock_options_log'
p1492
g4
sg25
g7
sS'total_stock_value_log'
p1493
g4
sg27
I1250000
sg28
I126027
sg29
I199
sS'deferral_payments_log'
p1494
g4
sS'other_log'
p1495
g4
sg32
I25
sS'total_payments_log'
p1496
g4
sg34
I126027
sS'long_term_incentive_log'
p1497
g4
sg36
I240189
sg37
I1639297
sg38
g7
sS'loan_advances_log'
p1498
g4
sS'deferred_income_log'
p1499
g4
ssS'RICE KENNETH D'
p1500
(dp1501
S'expenses_log'
p1502
g4
sg5
I905
sg6
g7
sS'bonus_log'
p1503
g4
sg9
I46950
sg10
I01
sg11
I-3504386
sS'restricted_stock_log'
p1504
g4
sg13
S'ken.rice@enron.com'
p1505
sg15
I1617011
sS'restricted_stock_deferred_log'
p1506
g4
sS'salary_log'
p1507
g4
sg18
g7
sS'director_fees_log'
p1508
g4
sg20
I864
sg21
g7
sg22
I18
sg23
I174839
sS'exercised_stock_options_log'
p1509
g4
sg25
g7
sS'total_stock_value_log'
p1510
g4
sg27
I1750000
sg28
I22542539
sg29
I42
sS'deferral_payments_log'
p1511
g4
sS'other_log'
p1512
g4
sg32
I4
sS'total_payments_log'
p1513
g4
sg34
I2748364
sS'long_term_incentive_log'
p1514
g4
sg36
I420636
sg37
I505050
sg38
I19794175
sS'loan_advances_log'
p1515
g4
sS'deferred_income_log'
p1516
g4
ssS'KAMINSKI WINCENTY J'
p1517
(dp1518
S'expenses_log'
p1519
g4
sg5
I4607
sg6
g7
sS'bonus_log'
p1520
g4
sg9
I83585
sg10
I00
sg11
g7
sS'restricted_stock_log'
p1521
g4
sg13
S'vince.kaminski@enron.com'
p1522
sg15
I323466
sS'restricted_stock_deferred_log'
p1523
g4
sS'salary_log'
p1524
g4
sg18
g7
sS'director_fees_log'
p1525
g4
sg20
I583
sg21
g7
sg22
I14368
sg23
I4669
sS'exercised_stock_options_log'
p1526
g4
sg25
g7
sS'total_stock_value_log'
p1527
g4
sg27
I400000
sg28
I976037
sg29
I41
sS'deferral_payments_log'
p1528
g4
sS'other_log'
p1529
g4
sg32
I171
sS'total_payments_log'
p1530
g4
sg34
I126027
sS'long_term_incentive_log'
p1531
g4
sg36
I275101
sg37
I1086821
sg38
I850010
sS'loan_advances_log'
p1532
g4
sS'deferred_income_log'
p1533
g4
ssS'COX DAVID'
p1534
(dp1535
S'expenses_log'
p1536
g4
sg5
I102
sg6
g7
sS'bonus_log'
p1537
g4
sg9
I27861
sg10
I00
sg11
I-41250
sS'restricted_stock_log'
p1538
g4
sg13
S'chip.cox@enron.com'
p1539
sg15
g7
sS'restricted_stock_deferred_log'
p1540
g4
sS'salary_log'
p1541
g4
sg18
g7
sS'director_fees_log'
p1542
g4
sg20
I71
sg21
g7
sg22
I33
sg23
I494
sS'exercised_stock_options_log'
p1543
g4
sg25
g7
sS'total_stock_value_log'
p1544
g4
sg27
I800000
sg28
I495633
sg29
I0
sS'deferral_payments_log'
p1545
g4
sS'other_log'
p1546
g4
sg32
I4
sS'total_payments_log'
p1547
g4
sg34
I378082
sS'long_term_incentive_log'
p1548
g4
sg36
I314288
sg37
I1101393
sg38
I117551
sS'loan_advances_log'
p1549
g4
sS'deferred_income_log'
p1550
g4
ssS'OVERDYKE JR JERE C'
p1551
(dp1552
S'expenses_log'
p1553
g4
sg5
g7
sg6
g7
sS'bonus_log'
p1554
g4
sg9
I18834
sg10
I00
sg11
g7
sS'restricted_stock_log'
p1555
g4
sg13
S'jere.overdyke@enron.com'
p1556
sg15
I135836
sS'restricted_stock_deferred_log'
p1557
g4
sS'salary_log'
p1558
g4
sg18
g7
sS'director_fees_log'
p1559
g4
sg20
g7
sg21
g7
sg22
g7
sg23
I176
sS'exercised_stock_options_log'
p1560
g4
sg25
g7
sS'total_stock_value_log'
p1561
g4
sg27
g7
sg28
I7307594
sg29
g7
sS'deferral_payments_log'
p1562
g4
sS'other_log'
p1563
g4
sg32
g7
sS'total_payments_log'
p1564
g4
sg34
I2041016
sS'long_term_incentive_log'
p1565
g4
sg36
I94941
sg37
I249787
sg38
I5266578
sS'loan_advances_log'
p1566
g4
sS'deferred_income_log'
p1567
g4
ssS'PEREIRA PAULO V. FERRAZ'
p1568
(dp1569
S'expenses_log'
p1570
g4
sg5
g7
sg6
g7
sS'bonus_log'
p1571
g4
sg9
I27942
sg10
I00
sg11
I-101250
sS'restricted_stock_log'
p1572
g4
sg13
g7
sg15
g7
sS'restricted_stock_deferred_log'
p1573
g4
sS'salary_log'
p1574
g4
sg18
g7
sS'director_fees_log'
p1575
g4
sg20
g7
sg21
g7
sg22
g7
sg23
g7
sS'exercised_stock_options_log'
p1576
g4
sg25
I101250
sS'total_stock_value_log'
p1577
g4
sg27
g7
sg28
g7
sg29
g7
sS'deferral_payments_log'
p1578
g4
sS'other_log'
p1579
g4
sg32
g7
sS'total_payments_log'
p1580
g4
sg34
g7
sS'long_term_incentive_log'
p1581
g4
sg36
g7
sg37
I27942
sg38
g7
sS'loan_advances_log'
p1582
g4
sS'deferred_income_log'
p1583
g4
ssS'STABLER FRANK'
p1584
(dp1585
S'expenses_log'
p1586
g4
sg5
g7
sg6
g7
sS'bonus_log'
p1587
g4
sg9
I16514
sg10
I00
sg11
g7
sS'restricted_stock_log'
p1588
g4
sg13
S'frank.stabler@enron.com'
p1589
sg15
g7
sS'restricted_stock_deferred_log'
p1590
g4
sS'salary_log'
p1591
g4
sg18
g7
sS'director_fees_log'
p1592
g4
sg20
g7
sg21
g7
sg22
g7
sg23
I356071
sS'exercised_stock_options_log'
p1593
g4
sg25
g7
sS'total_stock_value_log'
p1594
g4
sg27
I500000
sg28
I511734
sg29
g7
sS'deferral_payments_log'
p1595
g4
sS'other_log'
p1596
g4
sg32
g7
sS'total_payments_log'
p1597
g4
sg34
I511734
sS'long_term_incentive_log'
p1598
g4
sg36
I239502
sg37
I1112087
sg38
g7
sS'loan_advances_log'
p1599
g4
sS'deferred_income_log'
p1600
g4
ssS'SKILLING JEFFREY K'
p1601
(dp1602
S'expenses_log'
p1603
g4
sg5
I3627
sg6
g7
sS'bonus_log'
p1604
g4
sg9
I29336
sg10
I01
sg11
g7
sS'restricted_stock_log'
p1605
g4
sg13
S'jeff.skilling@enron.com'
p1606
sg15
I1920000
sS'restricted_stock_deferred_log'
p1607
g4
sS'salary_log'
p1608
g4
sg18
g7
sS'director_fees_log'
p1609
g4
sg20
I2042
sg21
g7
sg22
I108
sg23
I22122
sS'exercised_stock_options_log'
p1610
g4
sg25
g7
sS'total_stock_value_log'
p1611
g4
sg27
I5600000
sg28
I26093672
sg29
I88
sS'deferral_payments_log'
p1612
g4
sS'other_log'
p1613
g4
sg32
I30
sS'total_payments_log'
p1614
g4
sg34
I6843672
sS'long_term_incentive_log'
p1615
g4
sg36
I1111258
sg37
I8682716
sg38
I19250000
sS'loan_advances_log'
p1616
g4
sS'deferred_income_log'
p1617
g4
ssS'BLAKE JR. NORMAN P'
p1618
(dp1619
S'expenses_log'
p1620
g4
sg5
g7
sg6
g7
sS'bonus_log'
p1621
g4
sg9
I1279
sg10
I00
sg11
I-113784
sS'restricted_stock_log'
p1622
g4
sg13
g7
sg15
g7
sS'restricted_stock_deferred_log'
p1623
g4
sS'salary_log'
p1624
g4
sg18
g7
sS'director_fees_log'
p1625
g4
sg20
g7
sg21
g7
sg22
g7
sg23
g7
sS'exercised_stock_options_log'
p1626
g4
sg25
I113784
sS'total_stock_value_log'
p1627
g4
sg27
g7
sg28
g7
sg29
g7
sS'deferral_payments_log'
p1628
g4
sS'other_log'
p1629
g4
sg32
g7
sS'total_payments_log'
p1630
g4
sg34
g7
sS'long_term_incentive_log'
p1631
g4
sg36
g7
sg37
I1279
sg38
g7
sS'loan_advances_log'
p1632
g4
sS'deferred_income_log'
p1633
g4
ssS'SHERRICK JEFFREY B'
p1634
(dp1635
S'expenses_log'
p1636
g4
sg5
I613
sg6
g7
sS'bonus_log'
p1637
g4
sg9
g7
sg10
I00
sg11
g7
sS'restricted_stock_log'
p1638
g4
sg13
S'jeffrey.sherrick@enron.com'
p1639
sg15
g7
sS'restricted_stock_deferred_log'
p1640
g4
sS'salary_log'
p1641
g4
sg18
g7
sS'director_fees_log'
p1642
g4
sg20
I583
sg21
g7
sg22
I25
sg23
g7
sS'exercised_stock_options_log'
p1643
g4
sg25
g7
sS'total_stock_value_log'
p1644
g4
sg27
g7
sg28
I1832468
sg29
I39
sS'deferral_payments_log'
p1645
g4
sS'other_log'
p1646
g4
sg32
I18
sS'total_payments_log'
p1647
g4
sg34
I405999
sS'long_term_incentive_log'
p1648
g4
sg36
g7
sg37
g7
sg38
I1426469
sS'loan_advances_log'
p1649
g4
sS'deferred_income_log'
p1650
g4
ssS'PRENTICE JAMES'
p1651
(dp1652
S'expenses_log'
p1653
g4
sg5
g7
sg6
I564348
sS'bonus_log'
p1654
g4
sg9
g7
sg10
I00
sg11
g7
sS'restricted_stock_log'
p1655
g4
sg13
S'james.prentice@enron.com'
p1656
sg15
g7
sS'restricted_stock_deferred_log'
p1657
g4
sS'salary_log'
p1658
g4
sg18
g7
sS'director_fees_log'
p1659
g4
sg20
g7
sg21
g7
sg22
g7
sg23
g7
sS'exercised_stock_options_log'
p1660
g4
sg25
g7
sS'total_stock_value_log'
p1661
g4
sg27
g7
sg28
I1095040
sg29
g7
sS'deferral_payments_log'
p1662
g4
sS'other_log'
p1663
g4
sg32
g7
sS'total_payments_log'
p1664
g4
sg34
I208809
sS'long_term_incentive_log'
p1665
g4
sg36
g7
sg37
I564348
sg38
I886231
sS'loan_advances_log'
p1666
g4
sS'deferred_income_log'
p1667
g4
ssS'GRAY RODNEY'
p1668
(dp1669
S'expenses_log'
p1670
g4
sg5
g7
sg6
I93585
sS'bonus_log'
p1671
g4
sg9
g7
sg10
I00
sg11
g7
sS'restricted_stock_log'
p1672
g4
sg13
g7
sg15
I365625
sS'restricted_stock_deferred_log'
p1673
g4
sS'salary_log'
p1674
g4
sg18
g7
sS'director_fees_log'
p1675
g4
sg20
g7
sg21
g7
sg22
g7
sg23
I680833
sS'exercised_stock_options_log'
p1676
g4
sg25
g7
sS'total_stock_value_log'
p1677
g4
sg27
g7
sg28
g7
sg29
g7
sS'deferral_payments_log'
p1678
g4
sS'other_log'
p1679
g4
sg32
g7
sS'total_payments_log'
p1680
g4
sg34
g7
sS'long_term_incentive_log'
p1681
g4
sg36
I6615
sg37
I1146658
sg38
g7
sS'loan_advances_log'
p1682
g4
sS'deferred_income_log'
p1683
g4
ssS'PICKERING MARK R'
p1684
(dp1685
S'expenses_log'
p1686
g4
sg5
I898
sg6
g7
sS'bonus_log'
p1687
g4
sg9
I31653
sg10
I00
sg11
g7
sS'restricted_stock_log'
p1688
g4
sg13
S'mark.pickering@enron.com'
p1689
sg15
g7
sS'restricted_stock_deferred_log'
p1690
g4
sS'salary_log'
p1691
g4
sg18
g7
sS'director_fees_log'
p1692
g4
sg20
I728
sg21
I400000
sg22
I67
sg23
g7
sS'exercised_stock_options_log'
p1693
g4
sg25
g7
sS'total_stock_value_log'
p1694
g4
sg27
I300000
sg28
I28798
sg29
I7
sS'deferral_payments_log'
p1695
g4
sS'other_log'
p1696
g4
sg32
I0
sS'total_payments_log'
p1697
g4
sg34
g7
sS'long_term_incentive_log'
p1698
g4
sg36
I655037
sg37
I1386690
sg38
I28798
sS'loan_advances_log'
p1699
g4
sS'deferred_income_log'
p1700
g4
ssS'NOLES JAMES L'
p1701
(dp1702
S'expenses_log'
p1703
g4
sg5
g7
sg6
I774401
sS'bonus_log'
p1704
g4
sg9
g7
sg10
I00
sg11
g7
sS'restricted_stock_log'
p1705
g4
sg13
g7
sg15
g7
sS'restricted_stock_deferred_log'
p1706
g4
sS'salary_log'
p1707
g4
sg18
I-94556
sS'director_fees_log'
p1708
g4
sg20
g7
sg21
g7
sg22
g7
sg23
g7
sS'exercised_stock_options_log'
p1709
g4
sg25
g7
sS'total_stock_value_log'
p1710
g4
sg27
g7
sg28
I368705
sg29
g7
sS'deferral_payments_log'
p1711
g4
sS'other_log'
p1712
g4
sg32
g7
sS'total_payments_log'
p1713
g4
sg34
I463261
sS'long_term_incentive_log'
p1714
g4
sg36
g7
sg37
I774401
sg38
g7
sS'loan_advances_log'
p1715
g4
sS'deferred_income_log'
p1716
g4
ssS'KEAN STEVEN J'
p1717
(dp1718
S'expenses_log'
p1719
g4
sg5
I12754
sg6
g7
sS'bonus_log'
p1720
g4
sg9
I41953
sg10
I00
sg11
g7
sS'restricted_stock_log'
p1721
g4
sg13
S'steven.kean@enron.com'
p1722
sg15
I300000
sS'restricted_stock_deferred_log'
p1723
g4
sS'salary_log'
p1724
g4
sg18
g7
sS'director_fees_log'
p1725
g4
sg20
I3639
sg21
g7
sg22
I6759
sg23
I1231
sS'exercised_stock_options_log'
p1726
g4
sg25
g7
sS'total_stock_value_log'
p1727
g4
sg27
I1000000
sg28
I6153642
sg29
I140
sS'deferral_payments_log'
p1728
g4
sS'other_log'
p1729
g4
sg32
I387
sS'total_payments_log'
p1730
g4
sg34
I4131594
sS'long_term_incentive_log'
p1731
g4
sg36
I404338
sg37
I1747522
sg38
I2022048
sS'loan_advances_log'
p1732
g4
sS'deferred_income_log'
p1733
g4
ssS'FOWLER PEGGY'
p1734
(dp1735
S'expenses_log'
p1736
g4
sg5
I517
sg6
g7
sS'bonus_log'
p1737
g4
sg9
g7
sg10
I00
sg11
g7
sS'restricted_stock_log'
p1738
g4
sg13
S'kulvinder.fowler@enron.com'
p1739
sg15
g7
sS'restricted_stock_deferred_log'
p1740
g4
sS'salary_log'
p1741
g4
sg18
g7
sS'director_fees_log'
p1742
g4
sg20
I10
sg21
g7
sg22
I36
sg23
g7
sS'exercised_stock_options_log'
p1743
g4
sg25
g7
sS'total_stock_value_log'
p1744
g4
sg27
g7
sg28
I1884748
sg29
I0
sS'deferral_payments_log'
p1745
g4
sS'other_log'
p1746
g4
sg32
I0
sS'total_payments_log'
p1747
g4
sg34
I560170
sS'long_term_incentive_log'
p1748
g4
sg36
g7
sg37
g7
sg38
I1324578
sS'loan_advances_log'
p1749
g4
sS'deferred_income_log'
p1750
g4
ssS'WASAFF GEORGE'
p1751
(dp1752
S'expenses_log'
p1753
g4
sg5
I400
sg6
I831299
sS'bonus_log'
p1754
g4
sg9
g7
sg10
I00
sg11
I-583325
sS'restricted_stock_log'
p1755
g4
sg13
S'george.wasaff@enron.com'
p1756
sg15
I200000
sS'restricted_stock_deferred_log'
p1757
g4
sS'salary_log'
p1758
g4
sg18
g7
sS'director_fees_log'
p1759
g4
sg20
I337
sg21
g7
sg22
I30
sg23
I1425
sS'exercised_stock_options_log'
p1760
g4
sg25
g7
sS'total_stock_value_log'
p1761
g4
sg27
I325000
sg28
I2056427
sg29
I22
sS'deferral_payments_log'
p1762
g4
sS'other_log'
p1763
g4
sg32
I7
sS'total_payments_log'
p1764
g4
sg34
I388167
sS'long_term_incentive_log'
p1765
g4
sg36
I259996
sg37
I1034395
sg38
I1668260
sS'loan_advances_log'
p1766
g4
sS'deferred_income_log'
p1767
g4
ssS'WHITE JR THOMAS E'
p1768
(dp1769
S'expenses_log'
p1770
g4
sg5
g7
sg6
g7
sS'bonus_log'
p1771
g4
sg9
I81353
sg10
I00
sg11
g7
sS'restricted_stock_log'
p1772
g4
sg13
S'thomas.white@enron.com'
p1773
sg15
g7
sS'restricted_stock_deferred_log'
p1774
g4
sS'salary_log'
p1775
g4
sg18
g7
sS'director_fees_log'
p1776
g4
sg20
g7
sg21
g7
sg22
g7
sg23
I1085463
sS'exercised_stock_options_log'
p1777
g4
sg25
g7
sS'total_stock_value_log'
p1778
g4
sg27
I450000
sg28
I15144123
sg29
g7
sS'deferral_payments_log'
p1779
g4
sS'other_log'
p1780
g4
sg32
g7
sS'total_payments_log'
p1781
g4
sg34
I13847074
sS'long_term_incentive_log'
p1782
g4
sg36
I317543
sg37
I1934359
sg38
I1297049
sS'loan_advances_log'
p1783
g4
sS'deferred_income_log'
p1784
g4
ssS'CHRISTODOULOU DIOMEDES'
p1785
(dp1786
S'expenses_log'
p1787
g4
sg5
g7
sg6
g7
sS'bonus_log'
p1788
g4
sg9
g7
sg10
I00
sg11
g7
sS'restricted_stock_log'
p1789
g4
sg13
S'diomedes.christodoulou@enron.com'
p1790
sg15
g7
sS'restricted_stock_deferred_log'
p1791
g4
sS'salary_log'
p1792
g4
sg18
g7
sS'director_fees_log'
p1793
g4
sg20
g7
sg21
g7
sg22
g7
sg23
g7
sS'exercised_stock_options_log'
p1794
g4
sg25
g7
sS'total_stock_value_log'
p1795
g4
sg27
g7
sg28
I6077885
sg29
g7
sS'deferral_payments_log'
p1796
g4
sS'other_log'
p1797
g4
sg32
g7
sS'total_payments_log'
p1798
g4
sg34
I950730
sS'long_term_incentive_log'
p1799
g4
sg36
g7
sg37
g7
sg38
I5127155
sS'loan_advances_log'
p1800
g4
sS'deferred_income_log'
p1801
g4
ssS'ALLEN PHILLIP K'
p1802
(dp1803
S'expenses_log'
p1804
g4
sg5
I2902
sg6
I2869717
sS'bonus_log'
p1805
g4
sg9
I13868
sg10
I00
sg11
I-3081055
sS'restricted_stock_log'
p1806
g4
sg13
S'phillip.allen@enron.com'
p1807
sg15
I304805
sS'restricted_stock_deferred_log'
p1808
g4
sS'salary_log'
p1809
g4
sg18
I-126027
sS'director_fees_log'
p1810
g4
sg20
I1407
sg21
g7
sg22
I2195
sg23
I152
sS'exercised_stock_options_log'
p1811
g4
sg25
g7
sS'total_stock_value_log'
p1812
g4
sg27
I4175000
sg28
I1729541
sg29
I47
sS'deferral_payments_log'
p1813
g4
sS'other_log'
p1814
g4
sg32
I65
sS'total_payments_log'
p1815
g4
sg34
I126027
sS'long_term_incentive_log'
p1816
g4
sg36
I201955
sg37
I4484442
sg38
I1729541
sS'loan_advances_log'
p1817
g4
sS'deferred_income_log'
p1818
g4
ssS'SHARP VICTORIA T'
p1819
(dp1820
S'expenses_log'
p1821
g4
sg5
I3136
sg6
I187469
sS'bonus_log'
p1822
g4
sg9
I116337
sg10
I00
sg11
g7
sS'restricted_stock_log'
p1823
g4
sg13
S'vicki.sharp@enron.com'
p1824
sg15
I422158
sS'restricted_stock_deferred_log'
p1825
g4
sS'salary_log'
p1826
g4
sg18
g7
sS'director_fees_log'
p1827
g4
sg20
I2477
sg21
g7
sg22
I136
sg23
I2401
sS'exercised_stock_options_log'
p1828
g4
sg25
g7
sS'total_stock_value_log'
p1829
g4
sg27
I600000
sg28
I494136
sg29
I24
sS'deferral_payments_log'
p1830
g4
sS'other_log'
p1831
g4
sg32
I6
sS'total_payments_log'
p1832
g4
sg34
I213063
sS'long_term_incentive_log'
p1833
g4
sg36
I248146
sg37
I1576511
sg38
I281073
sS'loan_advances_log'
p1834
g4
sS'deferred_income_log'
p1835
g4
ssS'JAEDICKE ROBERT'
p1836
(dp1837
S'expenses_log'
p1838
g4
sg5
g7
sg6
g7
sS'bonus_log'
p1839
g4
sg9
g7
sg10
I00
sg11
I-25000
sS'restricted_stock_log'
p1840
g4
sg13
g7
sg15
g7
sS'restricted_stock_deferred_log'
p1841
g4
sS'salary_log'
p1842
g4
sg18
I-44093
sS'director_fees_log'
p1843
g4
sg20
g7
sg21
g7
sg22
g7
sg23
g7
sS'exercised_stock_options_log'
p1844
g4
sg25
I108750
sS'total_stock_value_log'
p1845
g4
sg27
g7
sg28
I431750
sg29
g7
sS'deferral_payments_log'
p1846
g4
sS'other_log'
p1847
g4
sg32
g7
sS'total_payments_log'
p1848
g4
sg34
I44093
sS'long_term_incentive_log'
p1849
g4
sg36
g7
sg37
I83750
sg38
I431750
sS'loan_advances_log'
p1850
g4
sS'deferred_income_log'
p1851
g4
ssS'WINOKUR JR. HERBERT S'
p1852
(dp1853
S'expenses_log'
p1854
g4
sg5
g7
sg6
g7
sS'bonus_log'
p1855
g4
sg9
I1413
sg10
I00
sg11
I-25000
sS'restricted_stock_log'
p1856
g4
sg13
g7
sg15
g7
sS'restricted_stock_deferred_log'
p1857
g4
sS'salary_log'
p1858
g4
sg18
g7
sS'director_fees_log'
p1859
g4
sg20
g7
sg21
g7
sg22
g7
sg23
g7
sS'exercised_stock_options_log'
p1860
g4
sg25
I108579
sS'total_stock_value_log'
p1861
g4
sg27
g7
sg28
g7
sg29
g7
sS'deferral_payments_log'
p1862
g4
sS'other_log'
p1863
g4
sg32
g7
sS'total_payments_log'
p1864
g4
sg34
g7
sS'long_term_incentive_log'
p1865
g4
sg36
g7
sg37
I84992
sg38
g7
sS'loan_advances_log'
p1866
g4
sS'deferred_income_log'
p1867
g4
ssS'BROWN MICHAEL'
p1868
(dp1869
S'expenses_log'
p1870
g4
sg5
I1486
sg6
g7
sS'bonus_log'
p1871
g4
sg9
I49288
sg10
I00
sg11
g7
sS'restricted_stock_log'
p1872
g4
sg13
S'michael.brown@enron.com'
p1873
sg15
g7
sS'restricted_stock_deferred_log'
p1874
g4
sS'salary_log'
p1875
g4
sg18
g7
sS'director_fees_log'
p1876
g4
sg20
I761
sg21
g7
sg22
I41
sg23
g7
sS'exercised_stock_options_log'
p1877
g4
sg25
g7
sS'total_stock_value_log'
p1878
g4
sg27
g7
sg28
g7
sg29
I13
sS'deferral_payments_log'
p1879
g4
sS'other_log'
p1880
g4
sg32
I1
sS'total_payments_log'
p1881
g4
sg34
g7
sS'long_term_incentive_log'
p1882
g4
sg36
g7
sg37
I49288
sg38
g7
sS'loan_advances_log'
p1883
g4
sS'deferred_income_log'
p1884
g4
ssS'BADUM JAMES P'
p1885
(dp1886
S'expenses_log'
p1887
g4
sg5
g7
sg6
I178980
sS'bonus_log'
p1888
g4
sg9
I3486
sg10
I00
sg11
g7
sS'restricted_stock_log'
p1889
g4
sg13
g7
sg15
g7
sS'restricted_stock_deferred_log'
p1890
g4
sS'salary_log'
p1891
g4
sg18
g7
sS'director_fees_log'
p1892
g4
sg20
g7
sg21
g7
sg22
g7
sg23
g7
sS'exercised_stock_options_log'
p1893
g4
sg25
g7
sS'total_stock_value_log'
p1894
g4
sg27
g7
sg28
I257817
sg29
g7
sS'deferral_payments_log'
p1895
g4
sS'other_log'
p1896
g4
sg32
g7
sS'total_payments_log'
p1897
g4
sg34
g7
sS'long_term_incentive_log'
p1898
g4
sg36
g7
sg37
I182466
sg38
I257817
sS'loan_advances_log'
p1899
g4
sS'deferred_income_log'
p1900
g4
ssS'HUGHES JAMES A'
p1901
(dp1902
S'expenses_log'
p1903
g4
sg5
I719
sg6
g7
sS'bonus_log'
p1904
g4
sg9
g7
sg10
I00
sg11
g7
sS'restricted_stock_log'
p1905
g4
sg13
S'james.hughes@enron.com'
p1906
sg15
g7
sS'restricted_stock_deferred_log'
p1907
g4
sS'salary_log'
p1908
g4
sg18
g7
sS'director_fees_log'
p1909
g4
sg20
I589
sg21
g7
sg22
I34
sg23
g7
sS'exercised_stock_options_log'
p1910
g4
sg25
g7
sS'total_stock_value_log'
p1911
g4
sg27
g7
sg28
I1118394
sg29
I35
sS'deferral_payments_log'
p1912
g4
sS'other_log'
p1913
g4
sg32
I5
sS'total_payments_log'
p1914
g4
sg34
I363428
sS'long_term_incentive_log'
p1915
g4
sg36
g7
sg37
g7
sg38
I754966
sS'loan_advances_log'
p1916
g4
sS'deferred_income_log'
p1917
g4
ssS'REYNOLDS LAWRENCE'
p1918
(dp1919
S'expenses_log'
p1920
g4
sg5
g7
sg6
I51365
sS'bonus_log'
p1921
g4
sg9
I8409
sg10
I00
sg11
I-200000
sS'restricted_stock_log'
p1922
g4
sg13
g7
sg15
I156250
sS'restricted_stock_deferred_log'
p1923
g4
sS'salary_log'
p1924
g4
sg18
I-140264
sS'director_fees_log'
p1925
g4
sg20
g7
sg21
g7
sg22
g7
sg23
I202052
sS'exercised_stock_options_log'
p1926
g4
sg25
g7
sS'total_stock_value_log'
p1927
g4
sg27
I100000
sg28
I4221891
sg29
g7
sS'deferral_payments_log'
p1928
g4
sS'other_log'
p1929
g4
sg32
g7
sS'total_payments_log'
p1930
g4
sg34
I201483
sS'long_term_incentive_log'
p1931
g4
sg36
I76399
sg37
I394475
sg38
I4160672
sS'loan_advances_log'
p1932
g4
sS'deferred_income_log'
p1933
g4
ssS'DIMICHELE RICHARD G'
p1934
(dp1935
S'expenses_log'
p1936
g4
sg5
g7
sg6
g7
sS'bonus_log'
p1937
g4
sg9
I35812
sg10
I00
sg11
g7
sS'restricted_stock_log'
p1938
g4
sg13
S'richard.dimichele@enron.com'
p1939
sg15
I694862
sS'restricted_stock_deferred_log'
p1940
g4
sS'salary_log'
p1941
g4
sg18
g7
sS'director_fees_log'
p1942
g4
sg20
g7
sg21
g7
sg22
g7
sg23
I374689
sS'exercised_stock_options_log'
p1943
g4
sg25
g7
sS'total_stock_value_log'
p1944
g4
sg27
I1000000
sg28
I8317782
sg29
g7
sS'deferral_payments_log'
p1945
g4
sS'other_log'
p1946
g4
sg32
g7
sS'total_payments_log'
p1947
g4
sg34
I126027
sS'long_term_incentive_log'
p1948
g4
sg36
I262788
sg37
I2368151
sg38
I8191755
sS'loan_advances_log'
p1949
g4
sS'deferred_income_log'
p1950
g4
ssS'BHATNAGAR SANJAY'
p1951
(dp1952
S'expenses_log'
p1953
g4
sg5
I523
sg6
g7
sS'bonus_log'
p1954
g4
sg9
g7
sg10
I00
sg11
g7
sS'restricted_stock_log'
p1955
g4
sg13
S'sanjay.bhatnagar@enron.com'
p1956
sg15
g7
sS'restricted_stock_deferred_log'
p1957
g4
sS'salary_log'
p1958
g4
sg18
I15456290
sS'director_fees_log'
p1959
g4
sg20
I463
sg21
g7
sg22
I29
sg23
I137864
sS'exercised_stock_options_log'
p1960
g4
sg25
I137864
sS'total_stock_value_log'
p1961
g4
sg27
g7
sS'total_stock_value'
p1962
S'NaN'
p1963
sg29
I0
sS'deferral_payments_log'
p1964
g4
sS'other_log'
p1965
g4
sg32
I1
sS'total_payments_log'
p1966
g4
sg34
I-2604490
sS'long_term_incentive_log'
p1967
g4
sg36
g7
sg37
I15456290
sg38
I2604490
sS'loan_advances_log'
p1968
g4
sS'deferred_income_log'
p1969
g4
ssS'CARTER REBECCA C'
p1970
(dp1971
S'expenses_log'
p1972
g4
sg5
I312
sg6
g7
sS'bonus_log'
p1973
g4
sg9
g7
sg10
I00
sg11
I-159792
sS'restricted_stock_log'
p1974
g4
sg13
S'rebecca.carter@enron.com'
p1975
sg15
I75000
sS'restricted_stock_deferred_log'
p1976
g4
sS'salary_log'
p1977
g4
sg18
I-307301
sS'director_fees_log'
p1978
g4
sg20
I196
sg21
g7
sg22
I15
sg23
I540
sS'exercised_stock_options_log'
p1979
g4
sg25
g7
sS'total_stock_value_log'
p1980
g4
sg27
I300000
sg28
g7
sg29
I29
sS'deferral_payments_log'
p1981
g4
sS'other_log'
p1982
g4
sg32
I7
sS'total_payments_log'
p1983
g4
sg34
I307301
sS'long_term_incentive_log'
p1984
g4
sg36
I261809
sg37
I477557
sg38
g7
sS'loan_advances_log'
p1985
g4
sS'deferred_income_log'
p1986
g4
ssS'BUCHANAN HAROLD G'
p1987
(dp1988
S'expenses_log'
p1989
g4
sg5
I1088
sg6
g7
sS'bonus_log'
p1990
g4
sg9
I600
sg10
I00
sg11
g7
sS'restricted_stock_log'
p1991
g4
sg13
S'john.buchanan@enron.com'
p1992
sg15
I304805
sS'restricted_stock_deferred_log'
p1993
g4
sS'salary_log'
p1994
g4
sg18
g7
sS'director_fees_log'
p1995
g4
sg20
I23
sg21
g7
sg22
I125
sg23
I1215
sS'exercised_stock_options_log'
p1996
g4
sg25
g7
sS'total_stock_value_log'
p1997
g4
sg27
I500000
sg28
I1014505
sg29
I0
sS'deferral_payments_log'
p1998
g4
sS'other_log'
p1999
g4
sg32
I0
sS'total_payments_log'
p2000
g4
sg34
I189041
sS'long_term_incentive_log'
p2001
g4
sg36
I248017
sg37
I1054637
sg38
I825464
sS'loan_advances_log'
p2002
g4
sS'deferred_income_log'
p2003
g4
ssS'YEAP SOON'
p2004
(dp2005
S'expenses_log'
p2006
g4
sg5
g7
sg6
g7
sS'bonus_log'
p2007
g4
sg9
I55097
sg10
I00
sg11
g7
sS'restricted_stock_log'
p2008
g4
sg13
g7
sg15
g7
sS'restricted_stock_deferred_log'
p2009
g4
sS'salary_log'
p2010
g4
sg18
g7
sS'director_fees_log'
p2011
g4
sg20
g7
sg21
g7
sg22
g7
sg23
g7
sS'exercised_stock_options_log'
p2012
g4
sg25
g7
sS'total_stock_value_log'
p2013
g4
sg27
g7
sg28
I192758
sg29
g7
sS'deferral_payments_log'
p2014
g4
sS'other_log'
p2015
g4
sg32
g7
sS'total_payments_log'
p2016
g4
sg34
g7
sS'long_term_incentive_log'
p2017
g4
sg36
g7
sg37
I55097
sg38
I192758
sS'loan_advances_log'
p2018
g4
sS'deferred_income_log'
p2019
g4
ssS'MURRAY JULIA H'
p2020
(dp2021
S'expenses_log'
p2022
g4
sg5
I2192
sg6
g7
sS'bonus_log'
p2023
g4
sg9
I57580
sg10
I00
sg11
g7
sS'restricted_stock_log'
p2024
g4
sg13
S'julia.murray@enron.com'
p2025
sg15
I125000
sS'restricted_stock_deferred_log'
p2026
g4
sS'salary_log'
p2027
g4
sg18
g7
sS'director_fees_log'
p2028
g4
sg20
I395
sg21
g7
sg22
I45
sg23
I330
sS'exercised_stock_options_log'
p2029
g4
sg25
g7
sS'total_stock_value_log'
p2030
g4
sg27
I400000
sg28
I597461
sg29
I11
sS'deferral_payments_log'
p2031
g4
sS'other_log'
p2032
g4
sg32
I2
sS'total_payments_log'
p2033
g4
sg34
I196983
sS'long_term_incentive_log'
p2034
g4
sg36
I229284
sg37
I812194
sg38
I400478
sS'loan_advances_log'
p2035
g4
sS'deferred_income_log'
p2036
g4
ssS'GARLAND C KEVIN'
p2037
(dp2038
S'expenses_log'
p2039
g4
sg5
I209
sg6
g7
sS'bonus_log'
p2040
g4
sg9
I48405
sg10
I00
sg11
g7
sS'restricted_stock_log'
p2041
g4
sg13
S'kevin.garland@enron.com'
p2042
sg15
I375304
sS'restricted_stock_deferred_log'
p2043
g4
sS'salary_log'
p2044
g4
sg18
g7
sS'director_fees_log'
p2045
g4
sg20
I178
sg21
g7
sg22
I44
sg23
I60814
sS'exercised_stock_options_log'
p2046
g4
sg25
g7
sS'total_stock_value_log'
p2047
g4
sg27
I850000
sg28
I896153
sg29
I10
sS'deferral_payments_log'
p2048
g4
sS'other_log'
p2049
g4
sg32
I27
sS'total_payments_log'
p2050
g4
sg34
I259907
sS'long_term_incentive_log'
p2051
g4
sg36
I231946
sg37
I1566469
sg38
I636246
sS'loan_advances_log'
p2052
g4
sS'deferred_income_log'
p2053
g4
ssS'DODSON KEITH'
p2054
(dp2055
S'expenses_log'
p2056
g4
sg5
I176
sg6
g7
sS'bonus_log'
p2057
g4
sg9
I28164
sg10
I00
sg11
g7
sS'restricted_stock_log'
p2058
g4
sg13
S'keith.dodson@enron.com'
p2059
sg15
g7
sS'restricted_stock_deferred_log'
p2060
g4
sS'salary_log'
p2061
g4
sg18
g7
sS'director_fees_log'
p2062
g4
sg20
I114
sg21
g7
sg22
I14
sg23
I774
sS'exercised_stock_options_log'
p2063
g4
sg25
g7
sS'total_stock_value_log'
p2064
g4
sg27
I70000
sg28
g7
sg29
I10
sS'deferral_payments_log'
p2065
g4
sS'other_log'
p2066
g4
sg32
I3
sS'total_payments_log'
p2067
g4
sg34
g7
sS'long_term_incentive_log'
p2068
g4
sg36
I221003
sg37
I319941
sg38
g7
sS'loan_advances_log'
p2069
g4
sS'deferred_income_log'
p2070
g4
ssS'YEAGER F SCOTT'
p2071
(dp2072
S'expenses_log'
p2073
g4
sg5
g7
sg6
g7
sS'bonus_log'
p2074
g4
sg9
I53947
sg10
I01
sg11
g7
sS'restricted_stock_log'
p2075
g4
sg13
S'scott.yeager@enron.com'
p2076
sg15
g7
sS'restricted_stock_deferred_log'
p2077
g4
sS'salary_log'
p2078
g4
sg18
g7
sS'director_fees_log'
p2079
g4
sg20
g7
sg21
g7
sg22
g7
sg23
I147950
sS'exercised_stock_options_log'
p2080
g4
sg25
g7
sS'total_stock_value_log'
p2081
g4
sg27
g7
sg28
I11884758
sg29
g7
sS'deferral_payments_log'
p2082
g4
sS'other_log'
p2083
g4
sg32
g7
sS'total_payments_log'
p2084
g4
sg34
I3576206
sS'long_term_incentive_log'
p2085
g4
sg36
I158403
sg37
I360300
sg38
I8308552
sS'loan_advances_log'
p2086
g4
sS'deferred_income_log'
p2087
g4
ssS'HIRKO JOSEPH'
p2088
(dp2089
S'expenses_log'
p2090
g4
sg5
g7
sg6
I10259
sS'bonus_log'
p2091
g4
sg9
I77978
sg10
I01
sg11
g7
sS'restricted_stock_log'
p2092
g4
sg13
S'joe.hirko@enron.com'
p2093
sg15
g7
sS'restricted_stock_deferred_log'
p2094
g4
sS'salary_log'
p2095
g4
sg18
g7
sS'director_fees_log'
p2096
g4
sg20
g7
sg21
g7
sg22
g7
sg23
I2856
sS'exercised_stock_options_log'
p2097
g4
sg25
g7
sS'total_stock_value_log'
p2098
g4
sg27
g7
sg28
I30766064
sg29
g7
sS'deferral_payments_log'
p2099
g4
sS'other_log'
p2100
g4
sg32
g7
sS'total_payments_log'
p2101
g4
sg34
g7
sS'long_term_incentive_log'
p2102
g4
sg36
g7
sg37
I91093
sg38
I30766064
sS'loan_advances_log'
p2103
g4
sS'deferred_income_log'
p2104
g4
ssS'DIETRICH JANET R'
p2105
(dp2106
S'expenses_log'
p2107
g4
sg5
I2572
sg6
g7
sS'bonus_log'
p2108
g4
sg9
I3475
sg10
I00
sg11
g7
sS'restricted_stock_log'
p2109
g4
sg13
S'janet.dietrich@enron.com'
p2110
sg15
I556416
sS'restricted_stock_deferred_log'
p2111
g4
sS'salary_log'
p2112
g4
sg18
g7
sS'director_fees_log'
p2113
g4
sg20
I1902
sg21
g7
sg22
I63
sg23
I473
sS'exercised_stock_options_log'
p2114
g4
sg25
g7
sS'total_stock_value_log'
p2115
g4
sg27
I600000
sg28
I1865087
sg29
I305
sS'deferral_payments_log'
p2116
g4
sS'other_log'
p2117
g4
sg32
I14
sS'total_payments_log'
p2118
g4
sg34
I315068
sS'long_term_incentive_log'
p2119
g4
sg36
I250100
sg37
I1410464
sg38
I1550019
sS'loan_advances_log'
p2120
g4
sS'deferred_income_log'
p2121
g4
ssS'DERRICK JR. JAMES V'
p2122
(dp2123
S'expenses_log'
p2124
g4
sg5
I2181
sg6
g7
sS'bonus_log'
p2125
g4
sg9
I51124
sg10
I00
sg11
I-1284000
sS'restricted_stock_log'
p2126
g4
sg13
S'james.derrick@enron.com'
p2127
sg15
I484000
sS'restricted_stock_deferred_log'
p2128
g4
sS'salary_log'
p2129
g4
sg18
I-1787380
sS'director_fees_log'
p2130
g4
sg20
I1401
sg21
g7
sg22
I909
sg23
I7482
sS'exercised_stock_options_log'
p2131
g4
sg25
g7
sS'total_stock_value_log'
p2132
g4
sg27
I800000
sg28
I8831913
sg29
I64
sS'deferral_payments_log'
p2133
g4
sS'other_log'
p2134
g4
sg32
I20
sS'total_payments_log'
p2135
g4
sg34
I1787380
sS'long_term_incentive_log'
p2136
g4
sg36
I492375
sg37
I550981
sg38
I8831913
sS'loan_advances_log'
p2137
g4
sS'deferred_income_log'
p2138
g4
ssS'FREVERT MARK A'
p2139
(dp2140
S'expenses_log'
p2141
g4
sg5
I3275
sg6
I6426990
sS'bonus_log'
p2142
g4
sg9
I86987
sg10
I00
sg11
I-3367011
sS'restricted_stock_log'
p2143
g4
sg13
S'mark.frevert@enron.com'
p2144
sg15
I1617011
sS'restricted_stock_deferred_log'
p2145
g4
sS'salary_log'
p2146
g4
sg18
g7
sS'director_fees_log'
p2147
g4
sg20
I2979
sg21
I2000000
sg22
I21
sg23
I7427621
sS'exercised_stock_options_log'
p2148
g4
sg25
g7
sS'total_stock_value_log'
p2149
g4
sg27
I2000000
sg28
I14622185
sg29
I242
sS'deferral_payments_log'
p2150
g4
sS'other_log'
p2151
g4
sg32
I6
sS'total_payments_log'
p2152
g4
sg34
I4188667
sS'long_term_incentive_log'
p2153
g4
sg36
I1060932
sg37
I17252530
sg38
I10433518
sS'loan_advances_log'
p2154
g4
sS'deferred_income_log'
p2155
g4
ssS'PAI LOU L'
p2156
(dp2157
S'expenses_log'
p2158
g4
sg5
g7
sg6
g7
sS'bonus_log'
p2159
g4
sg9
I32047
sg10
I00
sg11
g7
sS'restricted_stock_log'
p2160
g4
sg13
S'lou.pai@enron.com'
p2161
sg15
g7
sS'restricted_stock_deferred_log'
p2162
g4
sS'salary_log'
p2163
g4
sg18
g7
sS'director_fees_log'
p2164
g4
sg20
g7
sg21
g7
sg22
g7
sg23
I1829457
sS'exercised_stock_options_log'
p2165
g4
sg25
g7
sS'total_stock_value_log'
p2166
g4
sg27
I1000000
sg28
I23817930
sg29
g7
sS'deferral_payments_log'
p2167
g4
sS'other_log'
p2168
g4
sg32
g7
sS'total_payments_log'
p2169
g4
sg34
I8453763
sS'long_term_incentive_log'
p2170
g4
sg36
I261879
sg37
I3123383
sg38
I15364167
sS'loan_advances_log'
p2171
g4
sS'deferred_income_log'
p2172
g4
ssS'BAY FRANKLIN R'
p2173
(dp2174
S'expenses_log'
p2175
g4
sg5
g7
sg6
I260455
sS'bonus_log'
p2176
g4
sg9
I129142
sg10
I00
sg11
I-201641
sS'restricted_stock_log'
p2177
g4
sg13
S'frank.bay@enron.com'
p2178
sg15
g7
sS'restricted_stock_deferred_log'
p2179
g4
sS'salary_log'
p2180
g4
sg18
I-82782
sS'director_fees_log'
p2181
g4
sg20
g7
sg21
g7
sg22
g7
sg23
I69
sS'exercised_stock_options_log'
p2182
g4
sg25
g7
sS'total_stock_value_log'
p2183
g4
sg27
I400000
sg28
I63014
sg29
g7
sS'deferral_payments_log'
p2184
g4
sS'other_log'
p2185
g4
sg32
g7
sS'total_payments_log'
p2186
g4
sg34
I145796
sS'long_term_incentive_log'
p2187
g4
sg36
I239671
sg37
I827696
sg38
g7
sS'loan_advances_log'
p2188
g4
sS'deferred_income_log'
p2189
g4
ssS'HAYSLETT RODERICK J'
p2190
(dp2191
S'expenses_log'
p2192
g4
sg5
I2649
sg6
g7
sS'bonus_log'
p2193
g4
sg9
g7
sg10
I00
sg11
g7
sS'restricted_stock_log'
p2194
g4
sg13
S'rod.hayslett@enron.com'
p2195
sg15
g7
sS'restricted_stock_deferred_log'
p2196
g4
sS'salary_log'
p2197
g4
sg18
g7
sS'director_fees_log'
p2198
g4
sg20
I571
sg21
g7
sg22
I1061
sg23
g7
sS'exercised_stock_options_log'
p2199
g4
sg25
g7
sS'total_stock_value_log'
p2200
g4
sg27
g7
sg28
I346663
sg29
I35
sS'deferral_payments_log'
p2201
g4
sS'other_log'
p2202
g4
sg32
I38
sS'total_payments_log'
p2203
g4
sg34
I346663
sS'long_term_incentive_log'
p2204
g4
sg36
g7
sg37
g7
sg38
g7
sS'loan_advances_log'
p2205
g4
sS'deferred_income_log'
p2206
g4
ssS'FUGH JOHN L'
p2207
(dp2208
S'expenses_log'
p2209
g4
sg5
g7
sg6
I50591
sS'bonus_log'
p2210
g4
sg9
g7
sg10
I00
sg11
g7
sS'restricted_stock_log'
p2211
g4
sg13
g7
sg15
g7
sS'restricted_stock_deferred_log'
p2212
g4
sS'salary_log'
p2213
g4
sg18
g7
sS'director_fees_log'
p2214
g4
sg20
g7
sg21
g7
sg22
g7
sg23
g7
sS'exercised_stock_options_log'
p2215
g4
sg25
g7
sS'total_stock_value_log'
p2216
g4
sg27
g7
sg28
I176378
sg29
g7
sS'deferral_payments_log'
p2217
g4
sS'other_log'
p2218
g4
sg32
g7
sS'total_payments_log'
p2219
g4
sg34
g7
sS'long_term_incentive_log'
p2220
g4
sg36
g7
sg37
I50591
sg38
I176378
sS'loan_advances_log'
p2221
g4
sS'deferred_income_log'
p2222
g4
ssS'FALLON JAMES B'
p2223
(dp2224
S'expenses_log'
p2225
g4
sg5
I1755
sg6
g7
sS'bonus_log'
p2226
g4
sg9
I95924
sg10
I00
sg11
g7
sS'restricted_stock_log'
p2227
g4
sg13
S'jim.fallon@enron.com'
p2228
sg15
I374347
sS'restricted_stock_deferred_log'
p2229
g4
sS'salary_log'
p2230
g4
sg18
g7
sS'director_fees_log'
p2231
g4
sg20
I1604
sg21
g7
sg22
I75
sg23
I401481
sS'exercised_stock_options_log'
p2232
g4
sg25
g7
sS'total_stock_value_log'
p2233
g4
sg27
I2500000
sg28
I2332399
sg29
I42
sS'deferral_payments_log'
p2234
g4
sS'other_log'
p2235
g4
sg32
I37
sS'total_payments_log'
p2236
g4
sg34
I1392142
sS'long_term_incentive_log'
p2237
g4
sg36
I304588
sg37
I3676340
sg38
I940257
sS'loan_advances_log'
p2238
g4
sS'deferred_income_log'
p2239
g4
ssS'KOENIG MARK E'
p2240
(dp2241
S'expenses_log'
p2242
g4
sg5
I2374
sg6
g7
sS'bonus_log'
p2243
g4
sg9
I127017
sg10
I01
sg11
g7
sS'restricted_stock_log'
p2244
g4
sg13
S'mark.koenig@enron.com'
p2245
sg15
I300000
sS'restricted_stock_deferred_log'
p2246
g4
sS'salary_log'
p2247
g4
sg18
g7
sS'director_fees_log'
p2248
g4
sg20
I2271
sg21
g7
sg22
I61
sg23
I150458
sS'exercised_stock_options_log'
p2249
g4
sg25
g7
sS'total_stock_value_log'
p2250
g4
sg27
I700000
sg28
I1920055
sg29
I53
sS'deferral_payments_log'
p2251
g4
sS'other_log'
p2252
g4
sg32
I15
sS'total_payments_log'
p2253
g4
sg34
I1248318
sS'long_term_incentive_log'
p2254
g4
sg36
I309946
sg37
I1587421
sg38
I671737
sS'loan_advances_log'
p2255
g4
sS'deferred_income_log'
p2256
g4
ssS'SAVAGE FRANK'
p2257
(dp2258
S'expenses_log'
p2259
g4
sg5
g7
sg6
g7
sS'bonus_log'
p2260
g4
sg9
g7
sg10
I00
sg11
I-121284
sS'restricted_stock_log'
p2261
g4
sg13
g7
sg15
g7
sS'restricted_stock_deferred_log'
p2262
g4
sS'salary_log'
p2263
g4
sg18
g7
sS'director_fees_log'
p2264
g4
sg20
g7
sg21
g7
sg22
g7
sg23
g7
sS'exercised_stock_options_log'
p2265
g4
sg25
I125034
sS'total_stock_value_log'
p2266
g4
sg27
g7
sg28
g7
sg29
g7
sS'deferral_payments_log'
p2267
g4
sS'other_log'
p2268
g4
sg32
g7
sS'total_payments_log'
p2269
g4
sg34
g7
sS'long_term_incentive_log'
p2270
g4
sg36
g7
sg37
I3750
sg38
g7
sS'loan_advances_log'
p2271
g4
sS'deferred_income_log'
p2272
g4
ssS'IZZO LAWRENCE L'
p2273
(dp2274
S'expenses_log'
p2275
g4
sg5
I496
sg6
g7
sS'bonus_log'
p2276
g4
sg9
I28093
sg10
I00
sg11
g7
sS'restricted_stock_log'
p2277
g4
sg13
S'larry.izzo@enron.com'
p2278
sg15
I312500
sS'restricted_stock_deferred_log'
p2279
g4
sS'salary_log'
p2280
g4
sg18
g7
sS'director_fees_log'
p2281
g4
sg20
I437
sg21
g7
sg22
I19
sg23
I1553729
sS'exercised_stock_options_log'
p2282
g4
sg25
g7
sS'total_stock_value_log'
p2283
g4
sg27
g7
sg28
I5819980
sg29
I28
sS'deferral_payments_log'
p2284
g4
sS'other_log'
p2285
g4
sg32
I5
sS'total_payments_log'
p2286
g4
sg34
I3654808
sS'long_term_incentive_log'
p2287
g4
sg36
I85274
sg37
I1979596
sg38
I2165172
sS'loan_advances_log'
p2288
g4
sS'deferred_income_log'
p2289
g4
ssS'TILNEY ELIZABETH A'
p2290
(dp2291
S'expenses_log'
p2292
g4
sg5
I460
sg6
g7
sS'bonus_log'
p2293
g4
sg9
g7
sg10
I00
sg11
I-575000
sS'restricted_stock_log'
p2294
g4
sg13
S'elizabeth.tilney@enron.com'
p2295
sg15
I275000
sS'restricted_stock_deferred_log'
p2296
g4
sS'salary_log'
p2297
g4
sg18
g7
sS'director_fees_log'
p2298
g4
sg20
I379
sg21
g7
sg22
I19
sg23
I152055
sS'exercised_stock_options_log'
p2299
g4
sg25
g7
sS'total_stock_value_log'
p2300
g4
sg27
I300000
sg28
I1168042
sg29
I10
sS'deferral_payments_log'
p2301
g4
sS'other_log'
p2302
g4
sg32
I11
sS'total_payments_log'
p2303
g4
sg34
I576792
sS'long_term_incentive_log'
p2304
g4
sg36
I247338
sg37
I399393
sg38
I591250
sS'loan_advances_log'
p2305
g4
sS'deferred_income_log'
p2306
g4
ssS'MARTIN AMANDA K'
p2307
(dp2308
S'expenses_log'
p2309
g4
sg5
I1522
sg6
I85430
sS'bonus_log'
p2310
g4
sg9
I8211
sg10
I00
sg11
g7
sS'restricted_stock_log'
p2311
g4
sg13
S'a..martin@enron.com'
p2312
sg15
I5145434
sS'restricted_stock_deferred_log'
p2313
g4
sS'salary_log'
p2314
g4
sg18
g7
sS'director_fees_log'
p2315
g4
sg20
I477
sg21
g7
sg22
I230
sg23
I2818454
sS'exercised_stock_options_log'
p2316
g4
sg25
g7
sS'total_stock_value_log'
p2317
g4
sg27
g7
sg28
I2070306
sg29
I8
sS'deferral_payments_log'
p2318
g4
sS'other_log'
p2319
g4
sg32
I0
sS'total_payments_log'
p2320
g4
sg34
g7
sS'long_term_incentive_log'
p2321
g4
sg36
I349487
sg37
I8407016
sg38
I2070306
sS'loan_advances_log'
p2322
g4
sS'deferred_income_log'
p2323
g4
ssS'BUY RICHARD B'
p2324
(dp2325
S'expenses_log'
p2326
g4
sg5
I3523
sg6
I649584
sS'bonus_log'
p2327
g4
sg9
g7
sg10
I00
sg11
I-694862
sS'restricted_stock_log'
p2328
g4
sg13
S'rick.buy@enron.com'
p2329
sg15
I769862
sS'restricted_stock_deferred_log'
p2330
g4
sS'salary_log'
p2331
g4
sg18
g7
sS'director_fees_log'
p2332
g4
sg20
I2333
sg21
g7
sg22
I1053
sg23
I400572
sS'exercised_stock_options_log'
p2333
g4
sg25
g7
sS'total_stock_value_log'
p2334
g4
sg27
I900000
sg28
I3444470
sg29
I156
sS'deferral_payments_log'
p2335
g4
sS'other_log'
p2336
g4
sg32
I71
sS'total_payments_log'
p2337
g4
sg34
I901657
sS'long_term_incentive_log'
p2338
g4
sg36
I330546
sg37
I2355702
sg38
I2542813
sS'loan_advances_log'
p2339
g4
sS'deferred_income_log'
p2340
g4
ssS'GRAMM WENDY L'
p2341
(dp2342
S'expenses_log'
p2343
g4
sg5
g7
sg6
g7
sS'bonus_log'
p2344
g4
sg9
g7
sg10
I00
sg11
g7
sS'restricted_stock_log'
p2345
g4
sg13
g7
sg15
g7
sS'restricted_stock_deferred_log'
p2346
g4
sS'salary_log'
p2347
g4
sg18
g7
sS'director_fees_log'
p2348
g4
sg20
g7
sg21
g7
sg22
g7
sg23
g7
sS'exercised_stock_options_log'
p2349
g4
sg25
I119292
sS'total_stock_value_log'
p2350
g4
sg27
g7
sg28
g7
sg29
g7
sS'deferral_payments_log'
p2351
g4
sS'other_log'
p2352
g4
sg32
g7
sS'total_payments_log'
p2353
g4
sg34
g7
sS'long_term_incentive_log'
p2354
g4
sg36
g7
sg37
I119292
sg38
g7
sS'loan_advances_log'
p2355
g4
sS'deferred_income_log'
p2356
g4
ssS'CAUSEY RICHARD A'
p2357
(dp2358
S'expenses_log'
p2359
g4
sg5
I1892
sg6
g7
sS'bonus_log'
p2360
g4
sg9
I30674
sg10
I01
sg11
I-235000
sS'restricted_stock_log'
p2361
g4
sg13
S'richard.causey@enron.com'
p2362
sg15
I350000
sS'restricted_stock_deferred_log'
p2363
g4
sS'salary_log'
p2364
g4
sg18
g7
sS'director_fees_log'
p2365
g4
sg20
I1585
sg21
g7
sg22
I49
sg23
I307895
sS'exercised_stock_options_log'
p2366
g4
sg25
g7
sS'total_stock_value_log'
p2367
g4
sg27
I1000000
sg28
I2502063
sg29
I58
sS'deferral_payments_log'
p2368
g4
sS'other_log'
p2369
g4
sg32
I12
sS'total_payments_log'
p2370
g4
sg34
I2502063
sS'long_term_incentive_log'
p2371
g4
sg36
I415189
sg37
I1868758
sg38
g7
sS'loan_advances_log'
p2372
g4
sS'deferred_income_log'
p2373
g4
ssS'TAYLOR MITCHELL S'
p2374
(dp2375
S'expenses_log'
p2376
g4
sg5
I533
sg6
I227449
sS'bonus_log'
p2377
g4
sg9
g7
sg10
I00
sg11
g7
sS'restricted_stock_log'
p2378
g4
sg13
S'mitchell.taylor@enron.com'
p2379
sg15
g7
sS'restricted_stock_deferred_log'
p2380
g4
sS'salary_log'
p2381
g4
sg18
g7
sS'director_fees_log'
p2382
g4
sg20
I300
sg21
g7
sg22
I29
sg23
g7
sS'exercised_stock_options_log'
p2383
g4
sg25
g7
sS'total_stock_value_log'
p2384
g4
sg27
I600000
sg28
I3745048
sg29
I0
sS'deferral_payments_log'
p2385
g4
sS'other_log'
p2386
g4
sg32
I0
sS'total_payments_log'
p2387
g4
sg34
I563798
sS'long_term_incentive_log'
p2388
g4
sg36
I265214
sg37
I1092663
sg38
I3181250
sS'loan_advances_log'
p2389
g4
sS'deferred_income_log'
p2390
g4
ssS'DONAHUE JR JEFFREY M'
p2391
(dp2392
S'expenses_log'
p2393
g4
sg5
I865
sg6
g7
sS'bonus_log'
p2394
g4
sg9
I96268
sg10
I00
sg11
I-300000
sS'restricted_stock_log'
p2395
g4
sg13
S'jeff.donahue@enron.com'
p2396
sg15
g7
sS'restricted_stock_deferred_log'
p2397
g4
sS'salary_log'
p2398
g4
sg18
g7
sS'director_fees_log'
p2399
g4
sg20
I772
sg21
g7
sg22
I22
sg23
I891
sS'exercised_stock_options_log'
p2400
g4
sg25
g7
sS'total_stock_value_log'
p2401
g4
sg27
I800000
sg28
I1080988
sg29
I188
sS'deferral_payments_log'
p2402
g4
sS'other_log'
p2403
g4
sg32
I11
sS'total_payments_log'
p2404
g4
sg34
I315068
sS'long_term_incentive_log'
p2405
g4
sg36
I278601
sg37
I875760
sg38
I765920
sS'loan_advances_log'
p2406
g4
sS'deferred_income_log'
p2407
g4
ssS'GLISAN JR BEN F'
p2408
(dp2409
S'expenses_log'
p2410
g4
sg5
I873
sg6
g7
sS'bonus_log'
p2411
g4
sg9
I125978
sg10
I01
sg11
g7
sS'restricted_stock_log'
p2412
g4
sg13
S'ben.glisan@enron.com'
p2413
sg15
I71023
sS'restricted_stock_deferred_log'
p2414
g4
sS'salary_log'
p2415
g4
sg18
g7
sS'director_fees_log'
p2416
g4
sg20
I874
sg21
g7
sg22
I16
sg23
I200308
sS'exercised_stock_options_log'
p2417
g4
sg25
g7
sS'total_stock_value_log'
p2418
g4
sg27
I600000
sg28
I778546
sg29
I52
sS'deferral_payments_log'
p2419
g4
sS'other_log'
p2420
g4
sg32
I6
sS'total_payments_log'
p2421
g4
sg34
I393818
sS'long_term_incentive_log'
p2422
g4
sg36
I274975
sg37
I1272284
sg38
I384728
sS'loan_advances_log'
p2423
g4
sS'deferred_income_log'
p2424
g4
ss.