(lp0
S'poi'
p1
aS'salary'
p2
aS'total_stock_value_log'
p3
aS'total_payments'
p4
aS'salary_log'
p5
aS'bonus'
p6
aS'bonus_log'
p7
aS'total_stock_value'
p8
aS'shared_receipt_with_poi'
p9
aS'exercised_stock_options'
p10
aS'exercised_stock_options_log'
p11
aS'total_payments_log'
p12
aS'deferred_income'
p13
aS'expenses'
p14
aS'restricted_stock'
p15
aS'long_term_incentive'
p16
aS'loan_advances'
p17
a.